---
triple:          'arm64-apple-darwin'
binary-path:     '/Users/naresh/naresh/cs/code/dumbstuff/sortingWC/sortWC'
relocations:
  - { offset: 0x633F, size: 0x8, addend: 0x0, symName: __ZNSt3__16chronomiB8ne180100IxNS_5ratioILl1ELl1000000000EEExS3_EENS_11common_typeIJNS0_8durationIT_T0_EENS5_IT1_T2_EEEE4typeERKS8_RKSB_, symObjAddr: 0x329C, symBinAddr: 0x1000065E8, symSize: 0x6C }
  - { offset: 0x67E2, size: 0x8, addend: 0x0, symName: __ZNSt3__16chronomiB8ne180100INS0_12steady_clockENS0_8durationIxNS_5ratioILl1ELl1000000000EEEEES6_EENS_11common_typeIJT0_T1_EE4typeERKNS0_10time_pointIT_S8_EERKNSC_ISD_S9_EE, symObjAddr: 0x31F8, symBinAddr: 0x100006544, symSize: 0x58 }
  - { offset: 0x692B, size: 0x8, addend: 0x0, symName: __ZNSt3__16chrono13duration_castB8ne180100INS0_8durationIdNS_5ratioILl1ELl1000EEEEExNS3_ILl1ELl1000000000EEELi0EEET_RKNS2_IT0_T1_EE, symObjAddr: 0x33DC, symBinAddr: 0x100006728, symSize: 0x30 }
  - { offset: 0x6C05, size: 0x8, addend: 0x0, symName: __ZNSt3__124__put_character_sequenceB8ne180100IcNS_11char_traitsIcEEEERNS_13basic_ostreamIT_T0_EES7_PKS4_m, symObjAddr: 0x5C78, symBinAddr: 0x100008FC4, symSize: 0x1EC }
  - { offset: 0x7B60, size: 0x8, addend: 0x0, symName: __ZNSt3__111__introsortINS_17_ClassicAlgPolicyERZN10Tournament16printLeaderboardEvEUlP9AlgorithmS4_E_PS4_Lb0EEEvT1_S8_T0_NS_15iterator_traitsIS8_E15difference_typeEb, symObjAddr: 0x76C0, symBinAddr: 0x10000AA0C, symSize: 0x440 }
  - { offset: 0x7C8B, size: 0x8, addend: 0x0, symName: __ZNSt3__126__insertion_sort_unguardedB8ne180100INS_17_ClassicAlgPolicyERZN10Tournament16printLeaderboardEvEUlP9AlgorithmS4_E_PS4_EEvT1_S8_T0_, symObjAddr: 0x7DC4, symBinAddr: 0x10000B110, symSize: 0x12C }
  - { offset: 0x7D7B, size: 0x8, addend: 0x0, symName: __ZNSt3__111__sift_downB8ne180100INS_17_ClassicAlgPolicyERZN10Tournament16printLeaderboardEvEUlP9AlgorithmS4_E_PS4_EEvT1_OT0_NS_15iterator_traitsIS8_E15difference_typeES8_, symObjAddr: 0x903C, symBinAddr: 0x10000C388, symSize: 0x220 }
  - { offset: 0x7E28, size: 0x8, addend: 0x0, symName: __ZNSt3__117__floyd_sift_downB8ne180100INS_17_ClassicAlgPolicyERZN10Tournament16printLeaderboardEvEUlP9AlgorithmS4_E_PS4_EET1_S8_OT0_NS_15iterator_traitsIS8_E15difference_typeE, symObjAddr: 0x93F8, symBinAddr: 0x10000C744, symSize: 0x104 }
  - { offset: 0x7EC0, size: 0x8, addend: 0x0, symName: __ZNSt3__131__partition_with_equals_on_leftB8ne180100INS_17_ClassicAlgPolicyEPP9AlgorithmRZN10Tournament16printLeaderboardEvEUlS3_S3_E_EET0_S8_S8_T1_, symObjAddr: 0x8124, symBinAddr: 0x10000B470, symSize: 0x220 }
  - { offset: 0x7F7B, size: 0x8, addend: 0x0, symName: __ZNSt3__118__bitset_partitionB8ne180100INS_17_ClassicAlgPolicyEPP9AlgorithmRZN10Tournament16printLeaderboardEvEUlS3_S3_E_EENS_4pairIT0_bEES9_S9_T1_, symObjAddr: 0x8344, symBinAddr: 0x10000B690, symSize: 0x330 }
  - { offset: 0x8074, size: 0x8, addend: 0x0, symName: __ZNSt3__124__swap_bitmap_pos_withinB8ne180100INS_17_ClassicAlgPolicyEPP9AlgorithmEEvRT0_S6_RyS7_, symObjAddr: 0x9B78, symBinAddr: 0x10000CEC4, symSize: 0x1E0 }
  - { offset: 0x8141, size: 0x8, addend: 0x0, symName: __ZNSt3__132__partition_with_equals_on_rightB8ne180100INS_17_ClassicAlgPolicyEPP9AlgorithmRZN10Tournament16printLeaderboardEvEUlS3_S3_E_EENS_4pairIT0_bEES9_S9_T1_, symObjAddr: 0x8674, symBinAddr: 0x10000B9C0, symSize: 0x230 }
  - { offset: 0x820B, size: 0x8, addend: 0x0, symName: __ZNSt3__127__insertion_sort_incompleteB8ne180100INS_17_ClassicAlgPolicyERZN10Tournament16printLeaderboardEvEUlP9AlgorithmS4_E_PS4_EEbT1_S8_T0_, symObjAddr: 0x88A4, symBinAddr: 0x10000BBF0, symSize: 0x318 }
  - { offset: 0x9497, size: 0x8, addend: 0x0, symName: __ZNSt3__112__to_addressB8ne180100IP9AlgorithmEEPT_S4_, symObjAddr: 0x1778, symBinAddr: 0x100004AC4, symSize: 0x14 }
  - { offset: 0x94CC, size: 0x8, addend: 0x0, symName: __ZNSt3__13maxB8ne180100ImEERKT_S3_S3_, symObjAddr: 0x1B94, symBinAddr: 0x100004EE0, symSize: 0x2C }
  - { offset: 0x950F, size: 0x8, addend: 0x0, symName: __ZNSt3__13minB8ne180100ImEERKT_S3_S3_, symObjAddr: 0x1BC0, symBinAddr: 0x100004F0C, symSize: 0x2C }
  - { offset: 0x9753, size: 0x8, addend: 0x0, symName: __ZNSt3__13minB8ne180100ImNS_6__lessIvvEEEERKT_S5_S5_T0_, symObjAddr: 0x1C4C, symBinAddr: 0x100004F98, symSize: 0x54 }
  - { offset: 0x97F2, size: 0x8, addend: 0x0, symName: __ZNSt3__120__throw_length_errorB8ne180100EPKc, symObjAddr: 0x1D28, symBinAddr: 0x100005074, symSize: 0x64 }
  - { offset: 0x981A, size: 0x8, addend: 0x0, symName: __ZNSt3__13maxB8ne180100ImNS_6__lessIvvEEEERKT_S5_S5_T0_, symObjAddr: 0x1E64, symBinAddr: 0x1000051B0, symSize: 0x54 }
  - { offset: 0x9874, size: 0x8, addend: 0x0, symName: __ZNSt3__119__allocate_at_leastB8ne180100INS_9allocatorIP9AlgorithmEEEENS_19__allocation_resultINS_16allocator_traitsIT_E7pointerEEERS7_m, symObjAddr: 0x1FC8, symBinAddr: 0x100005314, symSize: 0x40 }
  - { offset: 0x98B7, size: 0x8, addend: 0x0, symName: __ZNSt3__117__libcpp_allocateB8ne180100Emm, symObjAddr: 0x214C, symBinAddr: 0x100005498, symSize: 0x28 }
  - { offset: 0x98F4, size: 0x8, addend: 0x0, symName: __ZNSt3__121__libcpp_operator_newB8ne180100IJmEEEPvDpT_, symObjAddr: 0x2174, symBinAddr: 0x1000054C0, symSize: 0x24 }
  - { offset: 0x992D, size: 0x8, addend: 0x0, symName: __ZNSt3__142__uninitialized_allocator_move_if_noexceptB8ne180100INS_9allocatorIP9AlgorithmEENS_16reverse_iteratorIPS3_EES7_S3_vEET1_RT_T0_SB_S8_, symObjAddr: 0x220C, symBinAddr: 0x100005558, symSize: 0x78 }
  - { offset: 0x99AA, size: 0x8, addend: 0x0, symName: __ZNSt3__14swapB8ne180100IPP9AlgorithmEENS_9enable_ifIXaasr21is_move_constructibleIT_EE5valuesr18is_move_assignableIS5_EE5valueEvE4typeERS5_S8_, symObjAddr: 0x22D0, symBinAddr: 0x10000561C, symSize: 0x3C }
  - { offset: 0x99FB, size: 0x8, addend: 0x0, symName: __ZNSt3__14moveB8ne180100INS_16reverse_iteratorIPP9AlgorithmEES5_EET0_T_S7_S6_, symObjAddr: 0x2320, symBinAddr: 0x10000566C, symSize: 0x78 }
  - { offset: 0x9A55, size: 0x8, addend: 0x0, symName: __ZNSt3__16__moveB8ne180100INS_17_ClassicAlgPolicyENS_16reverse_iteratorIPP9AlgorithmEES6_S6_EENS_4pairIT0_T2_EES8_T1_S9_, symObjAddr: 0x2398, symBinAddr: 0x1000056E4, symSize: 0x64 }
  - { offset: 0x9AC1, size: 0x8, addend: 0x0, symName: __ZNSt3__123__dispatch_copy_or_moveB8ne180100INS_17_ClassicAlgPolicyENS_11__move_loopIS1_EENS_14__move_trivialENS_16reverse_iteratorIPP9AlgorithmEES9_S9_EENS_4pairIT2_T4_EESB_T3_SC_, symObjAddr: 0x23FC, symBinAddr: 0x100005748, symSize: 0x64 }
  - { offset: 0x9B3F, size: 0x8, addend: 0x0, symName: __ZNSt3__121__unwrap_and_dispatchB8ne180100INS_10__overloadINS_11__move_loopINS_17_ClassicAlgPolicyEEENS_14__move_trivialEEENS_16reverse_iteratorIPP9AlgorithmEESB_SB_Li0EEENS_4pairIT0_T2_EESD_T1_SE_, symObjAddr: 0x2460, symBinAddr: 0x1000057AC, symSize: 0x12C }
  - { offset: 0x9BCF, size: 0x8, addend: 0x0, symName: __ZNSt3__114__unwrap_rangeB8ne180100INS_16reverse_iteratorIPP9AlgorithmEES5_EENS_4pairIT0_S7_EET_S9_, symObjAddr: 0x258C, symBinAddr: 0x1000058D8, symSize: 0x84 }
  - { offset: 0x9D89, size: 0x8, addend: 0x0, symName: __ZNSt3__113__unwrap_iterB8ne180100INS_16reverse_iteratorIPP9AlgorithmEENS_18__unwrap_iter_implIS5_Lb0EEELi0EEEDTclsrT0_8__unwrapclsr3stdE7declvalIT_EEEES9_, symObjAddr: 0x26B0, symBinAddr: 0x1000059FC, symSize: 0x44 }
  - { offset: 0x9DCD, size: 0x8, addend: 0x0, symName: __ZNSt3__19make_pairB8ne180100INS_16reverse_iteratorIPP9AlgorithmEES5_EENS_4pairINS_18__unwrap_ref_decayIT_E4typeENS7_IT0_E4typeEEEOS8_OSB_, symObjAddr: 0x26F4, symBinAddr: 0x100005A40, symSize: 0x38 }
  - { offset: 0x9E1C, size: 0x8, addend: 0x0, symName: __ZNSt3__114__rewrap_rangeB8ne180100INS_16reverse_iteratorIPP9AlgorithmEES5_EET_S6_T0_, symObjAddr: 0x272C, symBinAddr: 0x100005A78, symSize: 0x5C }
  - { offset: 0x9E68, size: 0x8, addend: 0x0, symName: __ZNSt3__113__rewrap_iterB8ne180100INS_16reverse_iteratorIPP9AlgorithmEES5_NS_18__unwrap_iter_implIS5_Lb0EEEEET_S8_T0_, symObjAddr: 0x2788, symBinAddr: 0x100005AD4, symSize: 0x74 }
  - { offset: 0x9EBD, size: 0x8, addend: 0x0, symName: __ZNSt3__1neB8ne180100IPP9AlgorithmS3_EEbRKNS_16reverse_iteratorIT_EERKNS4_IT0_EE, symObjAddr: 0x27FC, symBinAddr: 0x100005B48, symSize: 0x48 }
  - { offset: 0xA0D6, size: 0x8, addend: 0x0, symName: __ZNSt3__119__libcpp_deallocateB8ne180100EPvmm, symObjAddr: 0x2BF4, symBinAddr: 0x100005F40, symSize: 0x30 }
  - { offset: 0xA11E, size: 0x8, addend: 0x0, symName: __ZNSt3__127__do_deallocate_handle_sizeB8ne180100IJEEEvPvmDpT_, symObjAddr: 0x2C24, symBinAddr: 0x100005F70, symSize: 0x28 }
  - { offset: 0xA15C, size: 0x8, addend: 0x0, symName: __ZNSt3__124__libcpp_operator_deleteB8ne180100IJPvEEEvDpT_, symObjAddr: 0x2C4C, symBinAddr: 0x100005F98, symSize: 0x24 }
  - { offset: 0xA191, size: 0x8, addend: 0x0, symName: __ZNSt3__122__make_exception_guardB8ne180100INS_6vectorIiNS_9allocatorIiEEE16__destroy_vectorEEENS_28__exception_guard_exceptionsIT_EES7_, symObjAddr: 0x3E18, symBinAddr: 0x100007164, symSize: 0x40 }
  - { offset: 0xA1C6, size: 0x8, addend: 0x0, symName: __ZNSt3__119__allocate_at_leastB8ne180100INS_9allocatorIiEEEENS_19__allocation_resultINS_16allocator_traitsIT_E7pointerEEERS5_m, symObjAddr: 0x4204, symBinAddr: 0x100007550, symSize: 0x40 }
  - { offset: 0xA209, size: 0x8, addend: 0x0, symName: __ZNSt3__112__to_addressB8ne180100IiEEPT_S2_, symObjAddr: 0x4470, symBinAddr: 0x1000077BC, symSize: 0x14 }
  - { offset: 0xA23E, size: 0x8, addend: 0x0, symName: __ZNSt3__14swapB8ne180100IiEENS_9enable_ifIXaasr21is_move_constructibleIT_EE5valuesr18is_move_assignableIS2_EE5valueEvE4typeERS2_S5_, symObjAddr: 0x4DE4, symBinAddr: 0x100008130, symSize: 0x3C }
  - { offset: 0xA28F, size: 0x8, addend: 0x0, symName: __ZNSt3__1lsB8ne180100IcNS_11char_traitsIcEENS_9allocatorIcEEEERNS_13basic_ostreamIT_T0_EES9_RKNS_12basic_stringIS6_S7_T1_EE, symObjAddr: 0x57DC, symBinAddr: 0x100008B28, symSize: 0x4C }
  - { offset: 0xA2E7, size: 0x8, addend: 0x0, symName: __ZNSt3__1lsB8ne180100INS_11char_traitsIcEEEERNS_13basic_ostreamIcT_EES6_PKc, symObjAddr: 0x5828, symBinAddr: 0x100008B74, symSize: 0x48 }
  - { offset: 0xA32D, size: 0x8, addend: 0x0, symName: __ZNSt3__14endlB8ne180100IcNS_11char_traitsIcEEEERNS_13basic_ostreamIT_T0_EES7_, symObjAddr: 0x58C0, symBinAddr: 0x100008C0C, symSize: 0x58 }
  - { offset: 0xA36D, size: 0x8, addend: 0x0, symName: __ZNSt3__116__pad_and_outputB8ne180100IcNS_11char_traitsIcEEEENS_19ostreambuf_iteratorIT_T0_EES6_PKS4_S8_S8_RNS_8ios_baseES4_, symObjAddr: 0x5EFC, symBinAddr: 0x100009248, symSize: 0x240 }
  - { offset: 0xA43C, size: 0x8, addend: 0x0, symName: __ZNSt3__19use_facetB8ne180100INS_5ctypeIcEEEERKT_RKNS_6localeE, symObjAddr: 0x6514, symBinAddr: 0x100009860, symSize: 0x2C }
  - { offset: 0xA909, size: 0x8, addend: 0x0, symName: __ZNSt3__112__to_addressB8ne180100IKcEEPT_S3_, symObjAddr: 0x65AC, symBinAddr: 0x1000098F8, symSize: 0x14 }
  - { offset: 0xA971, size: 0x8, addend: 0x0, symName: __ZNSt3__118__constexpr_strlenB8ne180100EPKc, symObjAddr: 0x6778, symBinAddr: 0x100009AC4, symSize: 0x24 }
  - { offset: 0xA99D, size: 0x8, addend: 0x0, symName: __ZNSt3__1lsB8ne180100IcNS_11char_traitsIcEEEERNS_13basic_ostreamIT_T0_EES7_RKNS_8__iom_t5E, symObjAddr: 0x679C, symBinAddr: 0x100009AE8, symSize: 0x40 }
  - { offset: 0xA9E9, size: 0x8, addend: 0x0, symName: __ZNSt3__112setprecisionB8ne180100Ei, symObjAddr: 0x67DC, symBinAddr: 0x100009B28, symSize: 0x2C }
  - { offset: 0xAA15, size: 0x8, addend: 0x0, symName: __ZNSt3__14sortB8ne180100INS_11__wrap_iterIPP9AlgorithmEEZN10Tournament16printLeaderboardEvEUlS3_S3_E_EEvT_S8_T0_, symObjAddr: 0x68BC, symBinAddr: 0x100009C08, symSize: 0x40 }
  - { offset: 0xAA6F, size: 0x8, addend: 0x0, symName: __ZNSt3__1neB8ne180100IPP9AlgorithmEEbRKNS_11__wrap_iterIT_EES8_, symObjAddr: 0x695C, symBinAddr: 0x100009CA8, symSize: 0x34 }
  - { offset: 0xAAB2, size: 0x8, addend: 0x0, symName: __ZNSt3__1lsB8ne180100IcNS_11char_traitsIcEEEERNS_13basic_ostreamIT_T0_EES7_RKNS_8__iom_t6E, symObjAddr: 0x69A8, symBinAddr: 0x100009CF4, symSize: 0x40 }
  - { offset: 0xAAFE, size: 0x8, addend: 0x0, symName: __ZNSt3__14setwB8ne180100Ei, symObjAddr: 0x69E8, symBinAddr: 0x100009D34, symSize: 0x2C }
  - { offset: 0xAB2A, size: 0x8, addend: 0x0, symName: __ZNSt3__15fixedB8ne180100ERNS_8ios_baseE, symObjAddr: 0x6A54, symBinAddr: 0x100009DA0, symSize: 0x30 }
  - { offset: 0xAB58, size: 0x8, addend: 0x0, symName: __ZNSt3__122__make_exception_guardB8ne180100INS_6vectorIP9AlgorithmNS_9allocatorIS3_EEE16__destroy_vectorEEENS_28__exception_guard_exceptionsIT_EES9_, symObjAddr: 0x6C98, symBinAddr: 0x100009FE4, symSize: 0x40 }
  - { offset: 0xAB8D, size: 0x8, addend: 0x0, symName: __ZNSt3__130__uninitialized_allocator_copyB8ne180100INS_9allocatorIP9AlgorithmEEPS3_S5_S5_EET2_RT_T0_T1_S6_, symObjAddr: 0x6EB0, symBinAddr: 0x10000A1FC, symSize: 0x80 }
  - { offset: 0xAC2A, size: 0x8, addend: 0x0, symName: __ZNSt3__114__unwrap_rangeB8ne180100IPP9AlgorithmS3_EENS_4pairIT0_S5_EET_S7_, symObjAddr: 0x6F30, symBinAddr: 0x10000A27C, symSize: 0x60 }
  - { offset: 0xAC76, size: 0x8, addend: 0x0, symName: __ZNSt3__135__uninitialized_allocator_copy_implB8ne180100INS_9allocatorIP9AlgorithmEES3_S3_S3_LPv0EEEPT2_RT_PT0_SB_S7_, symObjAddr: 0x6F90, symBinAddr: 0x10000A2DC, symSize: 0x38 }
  - { offset: 0xACF7, size: 0x8, addend: 0x0, symName: __ZNSt3__113__unwrap_iterB8ne180100IPP9AlgorithmNS_18__unwrap_iter_implIS3_Lb1EEELi0EEEDTclsrT0_8__unwrapclsr3stdE7declvalIT_EEEES7_, symObjAddr: 0x6FC8, symBinAddr: 0x10000A314, symSize: 0x24 }
  - { offset: 0xAD3B, size: 0x8, addend: 0x0, symName: __ZNSt3__113__rewrap_iterB8ne180100IPP9AlgorithmS3_NS_18__unwrap_iter_implIS3_Lb1EEEEET_S6_T0_, symObjAddr: 0x6FEC, symBinAddr: 0x10000A338, symSize: 0x3C }
  - { offset: 0xAD90, size: 0x8, addend: 0x0, symName: __ZNSt3__19make_pairB8ne180100IPP9AlgorithmS3_EENS_4pairINS_18__unwrap_ref_decayIT_E4typeENS5_IT0_E4typeEEEOS6_OS9_, symObjAddr: 0x7028, symBinAddr: 0x10000A374, symSize: 0x38 }
  - { offset: 0xAEE2, size: 0x8, addend: 0x0, symName: __ZNSt3__14copyB8ne180100IPP9AlgorithmS3_EET0_T_S5_S4_, symObjAddr: 0x70D0, symBinAddr: 0x10000A41C, symSize: 0x40 }
  - { offset: 0xAF3C, size: 0x8, addend: 0x0, symName: __ZNSt3__16__copyB8ne180100INS_17_ClassicAlgPolicyEPP9AlgorithmS4_S4_EENS_4pairIT0_T2_EES6_T1_S7_, symObjAddr: 0x7110, symBinAddr: 0x10000A45C, symSize: 0x44 }
  - { offset: 0xAFA8, size: 0x8, addend: 0x0, symName: __ZNSt3__123__dispatch_copy_or_moveB8ne180100INS_17_ClassicAlgPolicyENS_11__copy_loopIS1_EENS_14__copy_trivialEPP9AlgorithmS7_S7_EENS_4pairIT2_T4_EES9_T3_SA_, symObjAddr: 0x7154, symBinAddr: 0x10000A4A0, symSize: 0x44 }
  - { offset: 0xB026, size: 0x8, addend: 0x0, symName: __ZNSt3__121__unwrap_and_dispatchB8ne180100INS_10__overloadINS_11__copy_loopINS_17_ClassicAlgPolicyEEENS_14__copy_trivialEEEPP9AlgorithmS9_S9_Li0EEENS_4pairIT0_T2_EESB_T1_SC_, symObjAddr: 0x7198, symBinAddr: 0x10000A4E4, symSize: 0xB4 }
  - { offset: 0xB136, size: 0x8, addend: 0x0, symName: __ZNSt3__114__rewrap_rangeB8ne180100IPP9AlgorithmS3_EET_S4_T0_, symObjAddr: 0x7294, symBinAddr: 0x10000A5E0, symSize: 0x2C }
  - { offset: 0xB182, size: 0x8, addend: 0x0, symName: __ZNSt3__119__copy_trivial_implB8ne180100IP9AlgorithmS2_EENS_4pairIPT_PT0_EES5_S5_S7_, symObjAddr: 0x72C0, symBinAddr: 0x10000A60C, symSize: 0x80 }
  - { offset: 0xB1EA, size: 0x8, addend: 0x0, symName: __ZNSt3__119__constexpr_memmoveB8ne180100IP9AlgorithmS2_Li0EEEPT_S4_PT0_NS_15__element_countE, symObjAddr: 0x7340, symBinAddr: 0x10000A68C, symSize: 0x64 }
  - { offset: 0xB258, size: 0x8, addend: 0x0, symName: __ZNSt3__19make_pairB8ne180100IRPP9AlgorithmS3_EENS_4pairINS_18__unwrap_ref_decayIT_E4typeENS6_IT0_E4typeEEEOS7_OSA_, symObjAddr: 0x73A4, symBinAddr: 0x10000A6F0, symSize: 0x38 }
  - { offset: 0xB2FA, size: 0x8, addend: 0x0, symName: __ZNSt3__111__sort_implB8ne180100INS_17_ClassicAlgPolicyENS_11__wrap_iterIPP9AlgorithmEEZN10Tournament16printLeaderboardEvEUlS4_S4_E_EEvT0_S9_RT1_, symObjAddr: 0x7508, symBinAddr: 0x10000A854, symSize: 0xA8 }
  - { offset: 0xB35D, size: 0x8, addend: 0x0, symName: __ZNSt3__123__debug_randomize_rangeB8ne180100INS_17_ClassicAlgPolicyENS_11__wrap_iterIPP9AlgorithmEES6_EEvT0_T1_, symObjAddr: 0x75B0, symBinAddr: 0x10000A8FC, symSize: 0x14 }
  - { offset: 0xB3AE, size: 0x8, addend: 0x0, symName: __ZNSt3__115__sort_dispatchB8ne180100INS_17_ClassicAlgPolicyEPP9AlgorithmZN10Tournament16printLeaderboardEvEUlS3_S3_E_EEvT0_S7_RT1_, symObjAddr: 0x75C4, symBinAddr: 0x10000A910, symSize: 0x64 }
  - { offset: 0xB42C, size: 0x8, addend: 0x0, symName: __ZNSt3__113__unwrap_iterB8ne180100INS_11__wrap_iterIPP9AlgorithmEENS_18__unwrap_iter_implIS5_Lb1EEELi0EEEDTclsrT0_8__unwrapclsr3stdE7declvalIT_EEEES9_, symObjAddr: 0x7628, symBinAddr: 0x10000A974, symSize: 0x2C }
  - { offset: 0xB470, size: 0x8, addend: 0x0, symName: __ZNSt3__135__check_strict_weak_ordering_sortedB8ne180100IPP9AlgorithmZN10Tournament16printLeaderboardEvEUlS2_S2_E_EEvT_S6_RT0_, symObjAddr: 0x7654, symBinAddr: 0x10000A9A0, symSize: 0x18 }
  - { offset: 0xB4C6, size: 0x8, addend: 0x0, symName: __ZNSt3__17__log2iB8ne180100IlEET_S1_, symObjAddr: 0x766C, symBinAddr: 0x10000A9B8, symSize: 0x54 }
  - { offset: 0xB4FD, size: 0x8, addend: 0x0, symName: __ZNSt3__112__libcpp_clzB8ne180100Em, symObjAddr: 0x7B18, symBinAddr: 0x10000AE64, symSize: 0x1C }
  - { offset: 0xB529, size: 0x8, addend: 0x0, symName: __ZNSt3__124__sort3_maybe_branchlessB8ne180100INS_17_ClassicAlgPolicyERZN10Tournament16printLeaderboardEvEUlP9AlgorithmS4_E_PS4_Li0EEEvT1_S8_S8_T0_, symObjAddr: 0x7B9C, symBinAddr: 0x10000AEE8, symSize: 0x3C }
  - { offset: 0xB59C, size: 0x8, addend: 0x0, symName: __ZNSt3__124__sort4_maybe_branchlessB8ne180100INS_17_ClassicAlgPolicyERZN10Tournament16printLeaderboardEvEUlP9AlgorithmS4_E_PS4_Li0EEEvT1_S8_S8_S8_T0_, symObjAddr: 0x7BD8, symBinAddr: 0x10000AF24, symSize: 0x44 }
  - { offset: 0xB61D, size: 0x8, addend: 0x0, symName: __ZNSt3__124__sort5_maybe_branchlessB8ne180100INS_17_ClassicAlgPolicyERZN10Tournament16printLeaderboardEvEUlP9AlgorithmS4_E_PS4_Li0EEEvT1_S8_S8_S8_S8_T0_, symObjAddr: 0x7C1C, symBinAddr: 0x10000AF68, symSize: 0x4C }
  - { offset: 0xB6B3, size: 0x8, addend: 0x0, symName: __ZNSt3__116__insertion_sortB8ne180100INS_17_ClassicAlgPolicyERZN10Tournament16printLeaderboardEvEUlP9AlgorithmS4_E_PS4_EEvT1_S8_T0_, symObjAddr: 0x7C68, symBinAddr: 0x10000AFB4, symSize: 0x15C }
  - { offset: 0xB77A, size: 0x8, addend: 0x0, symName: __ZNSt3__114__partial_sortB8ne180100INS_17_ClassicAlgPolicyERZN10Tournament16printLeaderboardEvEUlP9AlgorithmS4_E_PS4_S7_EET1_S8_S8_T2_RT0_, symObjAddr: 0x7EF0, symBinAddr: 0x10000B23C, symSize: 0x94 }
  - { offset: 0xB802, size: 0x8, addend: 0x0, symName: __ZNSt3__17__sort3B8ne180100INS_17_ClassicAlgPolicyERZN10Tournament16printLeaderboardEvEUlP9AlgorithmS4_E_PS4_EEjT1_S8_S8_T0_, symObjAddr: 0x7F84, symBinAddr: 0x10000B2D0, symSize: 0x16C }
  - { offset: 0xB881, size: 0x8, addend: 0x0, symName: __ZNSt3__19iter_swapB8ne180100IPP9AlgorithmS3_EEvT_T0_, symObjAddr: 0x8BD4, symBinAddr: 0x10000BF20, symSize: 0x2C }
  - { offset: 0xB8C9, size: 0x8, addend: 0x0, symName: __ZNSt3__14swapB8ne180100IP9AlgorithmEENS_9enable_ifIXaasr21is_move_constructibleIT_EE5valuesr18is_move_assignableIS4_EE5valueEvE4typeERS4_S7_, symObjAddr: 0x8C00, symBinAddr: 0x10000BF4C, symSize: 0x3C }
  - { offset: 0xB91A, size: 0x8, addend: 0x0, symName: __ZNSt3__17__sort4B8ne180100INS_17_ClassicAlgPolicyERZN10Tournament16printLeaderboardEvEUlP9AlgorithmS4_E_PS4_EEvT1_S8_S8_S8_T0_, symObjAddr: 0x8C3C, symBinAddr: 0x10000BF88, symSize: 0xD0 }
  - { offset: 0xB995, size: 0x8, addend: 0x0, symName: __ZNSt3__17__sort5B8ne180100INS_17_ClassicAlgPolicyERZN10Tournament16printLeaderboardEvEUlP9AlgorithmS4_E_PS4_EEvT1_S8_S8_S8_S8_T0_, symObjAddr: 0x8D0C, symBinAddr: 0x10000C058, symSize: 0x108 }
  - { offset: 0xBA1E, size: 0x8, addend: 0x0, symName: __ZNSt3__123__debug_randomize_rangeB8ne180100INS_17_ClassicAlgPolicyEPP9AlgorithmS4_EEvT0_T1_, symObjAddr: 0x8E58, symBinAddr: 0x10000C1A4, symSize: 0x14 }
  - { offset: 0xBA6F, size: 0x8, addend: 0x0, symName: __ZNSt3__119__partial_sort_implB8ne180100INS_17_ClassicAlgPolicyERZN10Tournament16printLeaderboardEvEUlP9AlgorithmS4_E_PS4_S7_EET1_S8_S8_T2_OT0_, symObjAddr: 0x8E6C, symBinAddr: 0x10000C1B8, symSize: 0x118 }
  - { offset: 0xBB05, size: 0x8, addend: 0x0, symName: __ZNSt3__111__make_heapB8ne180100INS_17_ClassicAlgPolicyERZN10Tournament16printLeaderboardEvEUlP9AlgorithmS4_E_PS4_EEvT1_S8_OT0_, symObjAddr: 0x8F84, symBinAddr: 0x10000C2D0, symSize: 0xB8 }
  - { offset: 0xBBA7, size: 0x8, addend: 0x0, symName: __ZNSt3__111__sort_heapB8ne180100INS_17_ClassicAlgPolicyERZN10Tournament16printLeaderboardEvEUlP9AlgorithmS4_E_PS4_EEvT1_S8_OT0_, symObjAddr: 0x925C, symBinAddr: 0x10000C5A8, symSize: 0xA8 }
  - { offset: 0xBC49, size: 0x8, addend: 0x0, symName: __ZNSt3__110__pop_heapB8ne180100INS_17_ClassicAlgPolicyEZN10Tournament16printLeaderboardEvEUlP9AlgorithmS4_E_PS4_EEvT1_S7_RT0_NS_15iterator_traitsIS7_E15difference_typeE, symObjAddr: 0x9304, symBinAddr: 0x10000C650, symSize: 0xF4 }
  - { offset: 0xBCF9, size: 0x8, addend: 0x0, symName: __ZNSt3__19__sift_upB8ne180100INS_17_ClassicAlgPolicyERZN10Tournament16printLeaderboardEvEUlP9AlgorithmS4_E_PS4_EEvT1_S8_OT0_NS_15iterator_traitsIS8_E15difference_typeE, symObjAddr: 0x94FC, symBinAddr: 0x10000C848, symSize: 0x128 }
  - { offset: 0xBDA9, size: 0x8, addend: 0x0, symName: __ZNSt3__122__populate_left_bitsetB8ne180100IRZN10Tournament16printLeaderboardEvEUlP9AlgorithmS3_E_PS3_S3_EEvT0_T_RT1_Ry, symObjAddr: 0x9624, symBinAddr: 0x10000C970, symSize: 0xB0 }
  - { offset: 0xBE64, size: 0x8, addend: 0x0, symName: __ZNSt3__123__populate_right_bitsetB8ne180100IRZN10Tournament16printLeaderboardEvEUlP9AlgorithmS3_E_PS3_S3_EEvT0_T_RT1_Ry, symObjAddr: 0x96D4, symBinAddr: 0x10000CA20, symSize: 0xAC }
  - { offset: 0xBF1F, size: 0x8, addend: 0x0, symName: __ZNSt3__117__swap_bitmap_posB8ne180100INS_17_ClassicAlgPolicyEPP9AlgorithmEEvT0_S5_RyS6_, symObjAddr: 0x9780, symBinAddr: 0x10000CACC, symSize: 0x100 }
  - { offset: 0xBFC0, size: 0x8, addend: 0x0, symName: __ZNSt3__133__bitset_partition_partial_blocksB8ne180100INS_17_ClassicAlgPolicyERZN10Tournament16printLeaderboardEvEUlP9AlgorithmS4_E_PS4_S4_EEvRT1_S9_T0_RT2_RySD_, symObjAddr: 0x9880, symBinAddr: 0x10000CBCC, symSize: 0x2F8 }
  - { offset: 0xC141, size: 0x8, addend: 0x0, symName: __ZNSt3__19make_pairB8ne180100IRPP9AlgorithmRbEENS_4pairINS_18__unwrap_ref_decayIT_E4typeENS7_IT0_E4typeEEEOS8_OSB_, symObjAddr: 0x9D58, symBinAddr: 0x10000D0A4, symSize: 0x38 }
  - { offset: 0xC190, size: 0x8, addend: 0x0, symName: __ZNSt3__112__libcpp_ctzB8ne180100Ey, symObjAddr: 0x9D90, symBinAddr: 0x10000D0DC, symSize: 0x20 }
  - { offset: 0xC1BC, size: 0x8, addend: 0x0, symName: __ZNSt3__113__libcpp_blsrB8ne180100Ey, symObjAddr: 0x9DB0, symBinAddr: 0x10000D0FC, symSize: 0x2C }
  - { offset: 0xC1E8, size: 0x8, addend: 0x0, symName: __ZNSt3__112__libcpp_clzB8ne180100Ey, symObjAddr: 0x9E10, symBinAddr: 0x10000D15C, symSize: 0x1C }
  - { offset: 0xC33B, size: 0x8, addend: 0x0, symName: __ZNSt3__112__to_addressB8ne180100INS_11__wrap_iterIPP9AlgorithmEEvEEu7__decayIDTclsr19__to_address_helperIT_EE6__callclsr3stdE7declvalIRKS6_EEEEES8_, symObjAddr: 0x9EC8, symBinAddr: 0x10000D214, symSize: 0x24 }
  - { offset: 0xC416, size: 0x8, addend: 0x0, symName: __ZNSt3__1eqB8ne180100IPP9AlgorithmEEbRKNS_11__wrap_iterIT_EES8_, symObjAddr: 0x9FE4, symBinAddr: 0x10000D330, symSize: 0x48 }
  - { offset: 0xC459, size: 0x8, addend: 0x0, symName: __ZNSt3__130__uninitialized_allocator_copyB8ne180100INS_9allocatorIiEEPiS3_S3_EET2_RT_T0_T1_S4_, symObjAddr: 0xA53C, symBinAddr: 0x10000D888, symSize: 0x80 }
  - { offset: 0xC4F6, size: 0x8, addend: 0x0, symName: __ZNSt3__114__unwrap_rangeB8ne180100IPiS1_EENS_4pairIT0_S3_EET_S5_, symObjAddr: 0xA5BC, symBinAddr: 0x10000D908, symSize: 0x60 }
  - { offset: 0xC542, size: 0x8, addend: 0x0, symName: __ZNSt3__135__uninitialized_allocator_copy_implB8ne180100INS_9allocatorIiEEiiiLPv0EEEPT2_RT_PT0_S9_S5_, symObjAddr: 0xA61C, symBinAddr: 0x10000D968, symSize: 0x38 }
  - { offset: 0xC5C3, size: 0x8, addend: 0x0, symName: __ZNSt3__113__unwrap_iterB8ne180100IPiNS_18__unwrap_iter_implIS1_Lb1EEELi0EEEDTclsrT0_8__unwrapclsr3stdE7declvalIT_EEEES5_, symObjAddr: 0xA654, symBinAddr: 0x10000D9A0, symSize: 0x24 }
  - { offset: 0xC607, size: 0x8, addend: 0x0, symName: __ZNSt3__113__rewrap_iterB8ne180100IPiS1_NS_18__unwrap_iter_implIS1_Lb1EEEEET_S4_T0_, symObjAddr: 0xA678, symBinAddr: 0x10000D9C4, symSize: 0x3C }
  - { offset: 0xC65C, size: 0x8, addend: 0x0, symName: __ZNSt3__19make_pairB8ne180100IPiS1_EENS_4pairINS_18__unwrap_ref_decayIT_E4typeENS3_IT0_E4typeEEEOS4_OS7_, symObjAddr: 0xA6B4, symBinAddr: 0x10000DA00, symSize: 0x38 }
  - { offset: 0xC7AE, size: 0x8, addend: 0x0, symName: __ZNSt3__14copyB8ne180100IPiS1_EET0_T_S3_S2_, symObjAddr: 0xA75C, symBinAddr: 0x10000DAA8, symSize: 0x40 }
  - { offset: 0xC808, size: 0x8, addend: 0x0, symName: __ZNSt3__16__copyB8ne180100INS_17_ClassicAlgPolicyEPiS2_S2_EENS_4pairIT0_T2_EES4_T1_S5_, symObjAddr: 0xA79C, symBinAddr: 0x10000DAE8, symSize: 0x44 }
  - { offset: 0xC874, size: 0x8, addend: 0x0, symName: __ZNSt3__123__dispatch_copy_or_moveB8ne180100INS_17_ClassicAlgPolicyENS_11__copy_loopIS1_EENS_14__copy_trivialEPiS5_S5_EENS_4pairIT2_T4_EES7_T3_S8_, symObjAddr: 0xA7E0, symBinAddr: 0x10000DB2C, symSize: 0x44 }
  - { offset: 0xC8F2, size: 0x8, addend: 0x0, symName: __ZNSt3__121__unwrap_and_dispatchB8ne180100INS_10__overloadINS_11__copy_loopINS_17_ClassicAlgPolicyEEENS_14__copy_trivialEEEPiS7_S7_Li0EEENS_4pairIT0_T2_EES9_T1_SA_, symObjAddr: 0xA824, symBinAddr: 0x10000DB70, symSize: 0xB4 }
  - { offset: 0xC980, size: 0x8, addend: 0x0, symName: __ZNSt3__114__rewrap_rangeB8ne180100IPiS1_EET_S2_T0_, symObjAddr: 0xA920, symBinAddr: 0x10000DC6C, symSize: 0x2C }
  - { offset: 0xC9CC, size: 0x8, addend: 0x0, symName: __ZNSt3__119__copy_trivial_implB8ne180100IiiEENS_4pairIPT_PT0_EES3_S3_S5_, symObjAddr: 0xA94C, symBinAddr: 0x10000DC98, symSize: 0x80 }
  - { offset: 0xCA34, size: 0x8, addend: 0x0, symName: __ZNSt3__119__constexpr_memmoveB8ne180100IiiLi0EEEPT_S2_PT0_NS_15__element_countE, symObjAddr: 0xA9CC, symBinAddr: 0x10000DD18, symSize: 0x64 }
  - { offset: 0xCAA2, size: 0x8, addend: 0x0, symName: __ZNSt3__19make_pairB8ne180100IRPiS1_EENS_4pairINS_18__unwrap_ref_decayIT_E4typeENS4_IT0_E4typeEEEOS5_OS8_, symObjAddr: 0xAA30, symBinAddr: 0x10000DD7C, symSize: 0x38 }
  - { offset: 0xCB44, size: 0x8, addend: 0x0, symName: __ZNSt3__142__uninitialized_allocator_move_if_noexceptB8ne180100INS_9allocatorIiEENS_16reverse_iteratorIPiEES5_ivEET1_RT_T0_S9_S6_, symObjAddr: 0xB364, symBinAddr: 0x10000E6B0, symSize: 0x78 }
  - { offset: 0xCBC1, size: 0x8, addend: 0x0, symName: __ZNSt3__14swapB8ne180100IPiEENS_9enable_ifIXaasr21is_move_constructibleIT_EE5valuesr18is_move_assignableIS3_EE5valueEvE4typeERS3_S6_, symObjAddr: 0xB428, symBinAddr: 0x10000E774, symSize: 0x3C }
  - { offset: 0xCC12, size: 0x8, addend: 0x0, symName: __ZNSt3__14moveB8ne180100INS_16reverse_iteratorIPiEES3_EET0_T_S5_S4_, symObjAddr: 0xB464, symBinAddr: 0x10000E7B0, symSize: 0x78 }
  - { offset: 0xCC6C, size: 0x8, addend: 0x0, symName: __ZNSt3__16__moveB8ne180100INS_17_ClassicAlgPolicyENS_16reverse_iteratorIPiEES4_S4_EENS_4pairIT0_T2_EES6_T1_S7_, symObjAddr: 0xB4DC, symBinAddr: 0x10000E828, symSize: 0x64 }
  - { offset: 0xCCD8, size: 0x8, addend: 0x0, symName: __ZNSt3__123__dispatch_copy_or_moveB8ne180100INS_17_ClassicAlgPolicyENS_11__move_loopIS1_EENS_14__move_trivialENS_16reverse_iteratorIPiEES7_S7_EENS_4pairIT2_T4_EES9_T3_SA_, symObjAddr: 0xB540, symBinAddr: 0x10000E88C, symSize: 0x64 }
  - { offset: 0xCD56, size: 0x8, addend: 0x0, symName: __ZNSt3__121__unwrap_and_dispatchB8ne180100INS_10__overloadINS_11__move_loopINS_17_ClassicAlgPolicyEEENS_14__move_trivialEEENS_16reverse_iteratorIPiEES9_S9_Li0EEENS_4pairIT0_T2_EESB_T1_SC_, symObjAddr: 0xB5A4, symBinAddr: 0x10000E8F0, symSize: 0x12C }
  - { offset: 0xCDE6, size: 0x8, addend: 0x0, symName: __ZNSt3__114__unwrap_rangeB8ne180100INS_16reverse_iteratorIPiEES3_EENS_4pairIT0_S5_EET_S7_, symObjAddr: 0xB6D0, symBinAddr: 0x10000EA1C, symSize: 0x84 }
  - { offset: 0xCF06, size: 0x8, addend: 0x0, symName: __ZNSt3__113__unwrap_iterB8ne180100INS_16reverse_iteratorIPiEENS_18__unwrap_iter_implIS3_Lb0EEELi0EEEDTclsrT0_8__unwrapclsr3stdE7declvalIT_EEEES7_, symObjAddr: 0xB7F4, symBinAddr: 0x10000EB40, symSize: 0x44 }
  - { offset: 0xCF4A, size: 0x8, addend: 0x0, symName: __ZNSt3__19make_pairB8ne180100INS_16reverse_iteratorIPiEES3_EENS_4pairINS_18__unwrap_ref_decayIT_E4typeENS5_IT0_E4typeEEEOS6_OS9_, symObjAddr: 0xB838, symBinAddr: 0x10000EB84, symSize: 0x38 }
  - { offset: 0xCF99, size: 0x8, addend: 0x0, symName: __ZNSt3__114__rewrap_rangeB8ne180100INS_16reverse_iteratorIPiEES3_EET_S4_T0_, symObjAddr: 0xB870, symBinAddr: 0x10000EBBC, symSize: 0x5C }
  - { offset: 0xCFE5, size: 0x8, addend: 0x0, symName: __ZNSt3__113__rewrap_iterB8ne180100INS_16reverse_iteratorIPiEES3_NS_18__unwrap_iter_implIS3_Lb0EEEEET_S6_T0_, symObjAddr: 0xB8CC, symBinAddr: 0x10000EC18, symSize: 0x74 }
  - { offset: 0xD03A, size: 0x8, addend: 0x0, symName: __ZNSt3__1neB8ne180100IPiS1_EEbRKNS_16reverse_iteratorIT_EERKNS2_IT0_EE, symObjAddr: 0xB940, symBinAddr: 0x10000EC8C, symSize: 0x48 }
  - { offset: 0xE0BD, size: 0x8, addend: 0x0, symName: __ZSt28__throw_bad_array_new_lengthB8ne180100v, symObjAddr: 0x2118, symBinAddr: 0x100005464, symSize: 0x34 }
  - { offset: 0xE81D, size: 0x8, addend: 0x0, symName: __ZNSt3__16vectorIP9AlgorithmNS_9allocatorIS2_EEE26__swap_out_circular_bufferERNS_14__split_bufferIS2_RS4_EE, symObjAddr: 0x199C, symBinAddr: 0x100004CE8, symSize: 0x110 }
  - { offset: 0xE8DB, size: 0x8, addend: 0x0, symName: __ZNKSt3__16chrono15__duration_castINS0_8durationIxNS_5ratioILl1ELl1000000000EEEEENS2_IdNS3_ILl1ELl1000EEEEENS3_ILl1ELl1000000EEELb1ELb0EEclB8ne180100ERKS5_, symObjAddr: 0x340C, symBinAddr: 0x100006758, symSize: 0x4C }
  - { offset: 0xEA57, size: 0x8, addend: 0x0, symName: __ZNSt3__16vectorIiNS_9allocatorIiEEE26__swap_out_circular_bufferERNS_14__split_bufferIiRS2_EE, symObjAddr: 0xAFFC, symBinAddr: 0x10000E348, symSize: 0x110 }
  - { offset: 0xEAC1, size: 0x8, addend: 0x0, symName: __Z8readFileRKNSt3__112basic_stringIcNS_11char_traitsIcEENS_9allocatorIcEEEERNS_6vectorIiNS3_IiEEEE, symObjAddr: 0x0, symBinAddr: 0x10000334C, symSize: 0x13C }
  - { offset: 0xEE5B, size: 0x8, addend: 0x0, symName: __ZNSt3__114basic_ifstreamIcNS_11char_traitsIcEEEC1ERKNS_12basic_stringIcS2_NS_9allocatorIcEEEEj, symObjAddr: 0x13C, symBinAddr: 0x100003488, symSize: 0x164 }
  - { offset: 0xEEA5, size: 0x8, addend: 0x0, symName: __ZNKSt3__114basic_ifstreamIcNS_11char_traitsIcEEE7is_openEv, symObjAddr: 0x2A0, symBinAddr: 0x1000035EC, symSize: 0x2C }
  - { offset: 0xEECD, size: 0x8, addend: 0x0, symName: __ZNKSt3__19basic_iosIcNS_11char_traitsIcEEEcvbB8ne180100Ev, symObjAddr: 0x2CC, symBinAddr: 0x100003618, symSize: 0x2C }
  - { offset: 0xEEF3, size: 0x8, addend: 0x0, symName: __ZNSt3__16vectorIiNS_9allocatorIiEEE9push_backB8ne180100ERKi, symObjAddr: 0x2F8, symBinAddr: 0x100003644, symSize: 0x90 }
  - { offset: 0xEF39, size: 0x8, addend: 0x0, symName: __ZNSt3__114basic_ifstreamIcNS_11char_traitsIcEEE5closeEv, symObjAddr: 0x388, symBinAddr: 0x1000036D4, symSize: 0x58 }
  - { offset: 0xEF66, size: 0x8, addend: 0x0, symName: __ZNSt3__114basic_ifstreamIcNS_11char_traitsIcEEED1Ev, symObjAddr: 0x3E0, symBinAddr: 0x10000372C, symSize: 0x40 }
  - { offset: 0xEF93, size: 0x8, addend: 0x0, symName: _main, symObjAddr: 0x420, symBinAddr: 0x10000376C, symSize: 0x154 }
  - { offset: 0xEFDC, size: 0x8, addend: 0x0, symName: __ZNSt3__16vectorIiNS_9allocatorIiEEEC1B8ne180100Ev, symObjAddr: 0x574, symBinAddr: 0x1000038C0, symSize: 0x2C }
  - { offset: 0xF00B, size: 0x8, addend: 0x0, symName: __ZNSt3__112basic_stringIcNS_11char_traitsIcEENS_9allocatorIcEEEC1B8ne180100ILi0EEEPKc, symObjAddr: 0x5A0, symBinAddr: 0x1000038EC, symSize: 0x34 }
  - { offset: 0xF0D2, size: 0x8, addend: 0x0, symName: __ZN10TournamentC1Ev, symObjAddr: 0x5D4, symBinAddr: 0x100003920, symSize: 0x2C }
  - { offset: 0xF0FC, size: 0x8, addend: 0x0, symName: __ZN10Tournament10roundRobinENSt3__16vectorIiNS0_9allocatorIiEEEE, symObjAddr: 0x600, symBinAddr: 0x10000394C, symSize: 0x244 }
  - { offset: 0xF16B, size: 0x8, addend: 0x0, symName: __ZNSt3__16vectorIiNS_9allocatorIiEEEC1ERKS3_, symObjAddr: 0x844, symBinAddr: 0x100003B90, symSize: 0x34 }
  - { offset: 0xF1A6, size: 0x8, addend: 0x0, symName: __ZNSt3__16vectorIiNS_9allocatorIiEEED1B8ne180100Ev, symObjAddr: 0x878, symBinAddr: 0x100003BC4, symSize: 0x2C }
  - { offset: 0xF1D0, size: 0x8, addend: 0x0, symName: __ZN10Tournament16printLeaderboardEv, symObjAddr: 0x8A4, symBinAddr: 0x100003BF0, symSize: 0x5B0 }
  - { offset: 0xF291, size: 0x8, addend: 0x0, symName: __ZN10TournamentD1Ev, symObjAddr: 0xE54, symBinAddr: 0x1000041A0, symSize: 0x2C }
  - { offset: 0xF2BB, size: 0x8, addend: 0x0, symName: __ZNSt3__114basic_ifstreamIcNS_11char_traitsIcEEED2Ev, symObjAddr: 0xE80, symBinAddr: 0x1000041CC, symSize: 0x64 }
  - { offset: 0xF2F5, size: 0x8, addend: 0x0, symName: __ZTv0_n24_NSt3__114basic_ifstreamIcNS_11char_traitsIcEEED1Ev, symObjAddr: 0xEE4, symBinAddr: 0x100004230, symSize: 0x28 }
  - { offset: 0xF30C, size: 0x8, addend: 0x0, symName: __ZN10TournamentC2Ev, symObjAddr: 0xF0C, symBinAddr: 0x100004258, symSize: 0x280 }
  - { offset: 0xF336, size: 0x8, addend: 0x0, symName: __ZNSt3__16vectorIP9AlgorithmNS_9allocatorIS2_EEEC1B8ne180100Ev, symObjAddr: 0x118C, symBinAddr: 0x1000044D8, symSize: 0x2C }
  - { offset: 0xF360, size: 0x8, addend: 0x0, symName: __ZNSt3__16vectorIP9AlgorithmNS_9allocatorIS2_EEE9push_backB8ne180100EOS2_, symObjAddr: 0x11B8, symBinAddr: 0x100004504, symSize: 0x90 }
  - { offset: 0xF3ED, size: 0x8, addend: 0x0, symName: __ZN13SelectionSortC1Ev, symObjAddr: 0x1248, symBinAddr: 0x100004594, symSize: 0x2C }
  - { offset: 0xF45E, size: 0x8, addend: 0x0, symName: __ZN10BubbleSortC1Ev, symObjAddr: 0x1274, symBinAddr: 0x1000045C0, symSize: 0x2C }
  - { offset: 0xF514, size: 0x8, addend: 0x0, symName: __ZN9MergeSortC1Ev, symObjAddr: 0x12A0, symBinAddr: 0x1000045EC, symSize: 0x2C }
  - { offset: 0xF585, size: 0x8, addend: 0x0, symName: __ZN13InsertionSortC1Ev, symObjAddr: 0x12CC, symBinAddr: 0x100004618, symSize: 0x2C }
  - { offset: 0xF63D, size: 0x8, addend: 0x0, symName: __ZN9QuickSortC1Ev, symObjAddr: 0x12F8, symBinAddr: 0x100004644, symSize: 0x2C }
  - { offset: 0xF6E9, size: 0x8, addend: 0x0, symName: __ZN8HeapSortC1Ev, symObjAddr: 0x1324, symBinAddr: 0x100004670, symSize: 0x2C }
  - { offset: 0xF75A, size: 0x8, addend: 0x0, symName: __ZN9CycleSortC1Ev, symObjAddr: 0x1350, symBinAddr: 0x10000469C, symSize: 0x2C }
  - { offset: 0xF784, size: 0x8, addend: 0x0, symName: __ZNSt3__16vectorIP9AlgorithmNS_9allocatorIS2_EEED1B8ne180100Ev, symObjAddr: 0x137C, symBinAddr: 0x1000046C8, symSize: 0x2C }
  - { offset: 0xF7AE, size: 0x8, addend: 0x0, symName: __ZNSt3__16vectorIP9AlgorithmNS_9allocatorIS2_EEEC2B8ne180100Ev, symObjAddr: 0x13A8, symBinAddr: 0x1000046F4, symSize: 0x4C }
  - { offset: 0xF7E8, size: 0x8, addend: 0x0, symName: __ZNSt3__117__compressed_pairIPP9AlgorithmNS_9allocatorIS2_EEEC1B8ne180100IDnNS_18__default_init_tagEEEOT_OT0_, symObjAddr: 0x13F4, symBinAddr: 0x100004740, symSize: 0x3C }
  - { offset: 0xF840, size: 0x8, addend: 0x0, symName: __ZNSt3__117__compressed_pairIPP9AlgorithmNS_9allocatorIS2_EEEC2B8ne180100IDnNS_18__default_init_tagEEEOT_OT0_, symObjAddr: 0x1440, symBinAddr: 0x10000478C, symSize: 0x40 }
  - { offset: 0xF898, size: 0x8, addend: 0x0, symName: __ZNSt3__122__compressed_pair_elemIPP9AlgorithmLi0ELb0EEC2B8ne180100IDnvEEOT_, symObjAddr: 0x1480, symBinAddr: 0x1000047CC, symSize: 0x1C }
  - { offset: 0xF8DA, size: 0x8, addend: 0x0, symName: __ZNSt3__122__compressed_pair_elemINS_9allocatorIP9AlgorithmEELi1ELb1EEC2B8ne180100ENS_18__default_init_tagE, symObjAddr: 0x149C, symBinAddr: 0x1000047E8, symSize: 0x2C }
  - { offset: 0xF90F, size: 0x8, addend: 0x0, symName: __ZNSt3__19allocatorIP9AlgorithmEC2B8ne180100Ev, symObjAddr: 0x14C8, symBinAddr: 0x100004814, symSize: 0x2C }
  - { offset: 0xF939, size: 0x8, addend: 0x0, symName: __ZNSt3__116__non_trivial_ifILb1ENS_9allocatorIP9AlgorithmEEEC2B8ne180100Ev, symObjAddr: 0x14F4, symBinAddr: 0x100004840, symSize: 0x14 }
  - { offset: 0xF963, size: 0x8, addend: 0x0, symName: __ZNSt3__16vectorIP9AlgorithmNS_9allocatorIS2_EEE9__end_capB8ne180100Ev, symObjAddr: 0x1508, symBinAddr: 0x100004854, symSize: 0x28 }
  - { offset: 0xF98E, size: 0x8, addend: 0x0, symName: __ZNSt3__16vectorIP9AlgorithmNS_9allocatorIS2_EEE22__construct_one_at_endB8ne180100IJS2_EEEvDpOT_, symObjAddr: 0x1530, symBinAddr: 0x10000487C, symSize: 0x90 }
  - { offset: 0xF9DD, size: 0x8, addend: 0x0, symName: __ZNSt3__16vectorIP9AlgorithmNS_9allocatorIS2_EEE21__push_back_slow_pathIS2_EEPS2_OT_, symObjAddr: 0x15C0, symBinAddr: 0x10000490C, symSize: 0xE8 }
  - { offset: 0xFA3B, size: 0x8, addend: 0x0, symName: __ZNSt3__117__compressed_pairIPP9AlgorithmNS_9allocatorIS2_EEE5firstB8ne180100Ev, symObjAddr: 0x16A8, symBinAddr: 0x1000049F4, symSize: 0x24 }
  - { offset: 0xFA61, size: 0x8, addend: 0x0, symName: __ZNSt3__122__compressed_pair_elemIPP9AlgorithmLi0ELb0EE5__getB8ne180100Ev, symObjAddr: 0x16CC, symBinAddr: 0x100004A18, symSize: 0x14 }
  - { offset: 0xFAA0, size: 0x8, addend: 0x0, symName: __ZNSt3__16vectorIP9AlgorithmNS_9allocatorIS2_EEE21_ConstructTransactionC1B8ne180100ERS5_m, symObjAddr: 0x16E0, symBinAddr: 0x100004A2C, symSize: 0x3C }
  - { offset: 0xFAE8, size: 0x8, addend: 0x0, symName: __ZNSt3__116allocator_traitsINS_9allocatorIP9AlgorithmEEE9constructB8ne180100IS3_JS3_EvEEvRS4_PT_DpOT0_, symObjAddr: 0x171C, symBinAddr: 0x100004A68, symSize: 0x34 }
  - { offset: 0xFB3F, size: 0x8, addend: 0x0, symName: __ZNSt3__16vectorIP9AlgorithmNS_9allocatorIS2_EEE7__allocB8ne180100Ev, symObjAddr: 0x1750, symBinAddr: 0x100004A9C, symSize: 0x28 }
  - { offset: 0xFB65, size: 0x8, addend: 0x0, symName: __ZNSt3__16vectorIP9AlgorithmNS_9allocatorIS2_EEE21_ConstructTransactionD1B8ne180100Ev, symObjAddr: 0x178C, symBinAddr: 0x100004AD8, symSize: 0x2C }
  - { offset: 0xFB8F, size: 0x8, addend: 0x0, symName: __ZNSt3__16vectorIP9AlgorithmNS_9allocatorIS2_EEE21_ConstructTransactionC2B8ne180100ERS5_m, symObjAddr: 0x17B8, symBinAddr: 0x100004B04, symSize: 0x44 }
  - { offset: 0xFBD7, size: 0x8, addend: 0x0, symName: __ZNSt3__19allocatorIP9AlgorithmE9constructB8ne180100IS2_JS2_EEEvPT_DpOT0_, symObjAddr: 0x17FC, symBinAddr: 0x100004B48, symSize: 0x28 }
  - { offset: 0xFC2D, size: 0x8, addend: 0x0, symName: __ZNSt3__117__compressed_pairIPP9AlgorithmNS_9allocatorIS2_EEE6secondB8ne180100Ev, symObjAddr: 0x1824, symBinAddr: 0x100004B70, symSize: 0x24 }
  - { offset: 0xFC53, size: 0x8, addend: 0x0, symName: __ZNSt3__122__compressed_pair_elemINS_9allocatorIP9AlgorithmEELi1ELb1EE5__getB8ne180100Ev, symObjAddr: 0x1848, symBinAddr: 0x100004B94, symSize: 0x14 }
  - { offset: 0xFC79, size: 0x8, addend: 0x0, symName: __ZNSt3__16vectorIP9AlgorithmNS_9allocatorIS2_EEE21_ConstructTransactionD2B8ne180100Ev, symObjAddr: 0x185C, symBinAddr: 0x100004BA8, symSize: 0x20 }
  - { offset: 0xFCA3, size: 0x8, addend: 0x0, symName: __ZNKSt3__16vectorIP9AlgorithmNS_9allocatorIS2_EEE11__recommendB8ne180100Em, symObjAddr: 0x187C, symBinAddr: 0x100004BC8, symSize: 0xB4 }
  - { offset: 0xFCF8, size: 0x8, addend: 0x0, symName: __ZNKSt3__16vectorIP9AlgorithmNS_9allocatorIS2_EEE4sizeB8ne180100Ev, symObjAddr: 0x1930, symBinAddr: 0x100004C7C, symSize: 0x28 }
  - { offset: 0xFD1E, size: 0x8, addend: 0x0, symName: __ZNSt3__114__split_bufferIP9AlgorithmRNS_9allocatorIS2_EEEC1EmmS5_, symObjAddr: 0x1958, symBinAddr: 0x100004CA4, symSize: 0x44 }
  - { offset: 0xFD74, size: 0x8, addend: 0x0, symName: __ZNSt3__114__split_bufferIP9AlgorithmRNS_9allocatorIS2_EEED1Ev, symObjAddr: 0x1AAC, symBinAddr: 0x100004DF8, symSize: 0x2C }
  - { offset: 0xFDA0, size: 0x8, addend: 0x0, symName: __ZNKSt3__16vectorIP9AlgorithmNS_9allocatorIS2_EEE8max_sizeEv, symObjAddr: 0x1AD8, symBinAddr: 0x100004E24, symSize: 0x60 }
  - { offset: 0xFDC8, size: 0x8, addend: 0x0, symName: __ZNKSt3__16vectorIP9AlgorithmNS_9allocatorIS2_EEE20__throw_length_errorB8ne180100Ev, symObjAddr: 0x1B38, symBinAddr: 0x100004E84, symSize: 0x1C }
  - { offset: 0xFDEE, size: 0x8, addend: 0x0, symName: __ZNKSt3__16vectorIP9AlgorithmNS_9allocatorIS2_EEE8capacityB8ne180100Ev, symObjAddr: 0x1B54, symBinAddr: 0x100004EA0, symSize: 0x40 }
  - { offset: 0xFE1E, size: 0x8, addend: 0x0, symName: __ZNSt3__116allocator_traitsINS_9allocatorIP9AlgorithmEEE8max_sizeB8ne180100IS4_vEEmRKS4_, symObjAddr: 0x1BEC, symBinAddr: 0x100004F38, symSize: 0x24 }
  - { offset: 0xFE4C, size: 0x8, addend: 0x0, symName: __ZNKSt3__16vectorIP9AlgorithmNS_9allocatorIS2_EEE7__allocB8ne180100Ev, symObjAddr: 0x1C10, symBinAddr: 0x100004F5C, symSize: 0x28 }
  - { offset: 0xFE72, size: 0x8, addend: 0x0, symName: __ZNSt3__114numeric_limitsIlE3maxB8ne180100Ev, symObjAddr: 0x1C38, symBinAddr: 0x100004F84, symSize: 0x14 }
  - { offset: 0xFE9A, size: 0x8, addend: 0x0, symName: __ZNKSt3__16__lessIvvEclB8ne180100ImmEEbRKT_RKT0_, symObjAddr: 0x1CA0, symBinAddr: 0x100004FEC, symSize: 0x34 }
  - { offset: 0xFEEE, size: 0x8, addend: 0x0, symName: __ZNKSt3__19allocatorIP9AlgorithmE8max_sizeB8ne180100Ev, symObjAddr: 0x1CD4, symBinAddr: 0x100005020, symSize: 0x14 }
  - { offset: 0xFF14, size: 0x8, addend: 0x0, symName: __ZNKSt3__117__compressed_pairIPP9AlgorithmNS_9allocatorIS2_EEE6secondB8ne180100Ev, symObjAddr: 0x1CE8, symBinAddr: 0x100005034, symSize: 0x24 }
  - { offset: 0xFF3A, size: 0x8, addend: 0x0, symName: __ZNKSt3__122__compressed_pair_elemINS_9allocatorIP9AlgorithmEELi1ELb1EE5__getB8ne180100Ev, symObjAddr: 0x1D0C, symBinAddr: 0x100005058, symSize: 0x14 }
  - { offset: 0xFF60, size: 0x8, addend: 0x0, symName: __ZNSt3__123__libcpp_numeric_limitsIlLb1EE3maxB8ne180100Ev, symObjAddr: 0x1D20, symBinAddr: 0x10000506C, symSize: 0x8 }
  - { offset: 0xFF74, size: 0x8, addend: 0x0, symName: __ZNSt12length_errorC1B8ne180100EPKc, symObjAddr: 0x1D8C, symBinAddr: 0x1000050D8, symSize: 0x34 }
  - { offset: 0xFFAC, size: 0x8, addend: 0x0, symName: __ZNSt12length_errorC2B8ne180100EPKc, symObjAddr: 0x1DC0, symBinAddr: 0x10000510C, symSize: 0x44 }
  - { offset: 0xFFE4, size: 0x8, addend: 0x0, symName: __ZNKSt3__16vectorIP9AlgorithmNS_9allocatorIS2_EEE9__end_capB8ne180100Ev, symObjAddr: 0x1E04, symBinAddr: 0x100005150, symSize: 0x28 }
  - { offset: 0x1000A, size: 0x8, addend: 0x0, symName: __ZNKSt3__117__compressed_pairIPP9AlgorithmNS_9allocatorIS2_EEE5firstB8ne180100Ev, symObjAddr: 0x1E2C, symBinAddr: 0x100005178, symSize: 0x24 }
  - { offset: 0x10030, size: 0x8, addend: 0x0, symName: __ZNKSt3__122__compressed_pair_elemIPP9AlgorithmLi0ELb0EE5__getB8ne180100Ev, symObjAddr: 0x1E50, symBinAddr: 0x10000519C, symSize: 0x14 }
  - { offset: 0x10056, size: 0x8, addend: 0x0, symName: __ZNSt3__114__split_bufferIP9AlgorithmRNS_9allocatorIS2_EEEC2EmmS5_, symObjAddr: 0x1EB8, symBinAddr: 0x100005204, symSize: 0xD4 }
  - { offset: 0x100C9, size: 0x8, addend: 0x0, symName: __ZNSt3__117__compressed_pairIPP9AlgorithmRNS_9allocatorIS2_EEEC1B8ne180100IDnS6_EEOT_OT0_, symObjAddr: 0x1F8C, symBinAddr: 0x1000052D8, symSize: 0x3C }
  - { offset: 0x10121, size: 0x8, addend: 0x0, symName: __ZNSt3__114__split_bufferIP9AlgorithmRNS_9allocatorIS2_EEE7__allocB8ne180100Ev, symObjAddr: 0x2008, symBinAddr: 0x100005354, symSize: 0x28 }
  - { offset: 0x10147, size: 0x8, addend: 0x0, symName: __ZNSt3__114__split_bufferIP9AlgorithmRNS_9allocatorIS2_EEE9__end_capB8ne180100Ev, symObjAddr: 0x2030, symBinAddr: 0x10000537C, symSize: 0x28 }
  - { offset: 0x1016D, size: 0x8, addend: 0x0, symName: __ZNSt3__117__compressed_pairIPP9AlgorithmRNS_9allocatorIS2_EEEC2B8ne180100IDnS6_EEOT_OT0_, symObjAddr: 0x2058, symBinAddr: 0x1000053A4, symSize: 0x48 }
  - { offset: 0x101C5, size: 0x8, addend: 0x0, symName: __ZNSt3__122__compressed_pair_elemIRNS_9allocatorIP9AlgorithmEELi1ELb0EEC2B8ne180100IS5_vEEOT_, symObjAddr: 0x20A0, symBinAddr: 0x1000053EC, symSize: 0x20 }
  - { offset: 0x10207, size: 0x8, addend: 0x0, symName: __ZNSt3__19allocatorIP9AlgorithmE8allocateB8ne180100Em, symObjAddr: 0x20C0, symBinAddr: 0x10000540C, symSize: 0x58 }
  - { offset: 0x1023B, size: 0x8, addend: 0x0, symName: __ZNSt3__117__compressed_pairIPP9AlgorithmRNS_9allocatorIS2_EEE6secondB8ne180100Ev, symObjAddr: 0x2198, symBinAddr: 0x1000054E4, symSize: 0x28 }
  - { offset: 0x10261, size: 0x8, addend: 0x0, symName: __ZNSt3__122__compressed_pair_elemIRNS_9allocatorIP9AlgorithmEELi1ELb0EE5__getB8ne180100Ev, symObjAddr: 0x21C0, symBinAddr: 0x10000550C, symSize: 0x18 }
  - { offset: 0x10287, size: 0x8, addend: 0x0, symName: __ZNSt3__117__compressed_pairIPP9AlgorithmRNS_9allocatorIS2_EEE5firstB8ne180100Ev, symObjAddr: 0x21D8, symBinAddr: 0x100005524, symSize: 0x24 }
  - { offset: 0x102AD, size: 0x8, addend: 0x0, symName: __ZNKSt3__16vectorIP9AlgorithmNS_9allocatorIS2_EEE17__annotate_deleteB8ne180100Ev, symObjAddr: 0x21FC, symBinAddr: 0x100005548, symSize: 0x10 }
  - { offset: 0x102D3, size: 0x8, addend: 0x0, symName: __ZNSt3__116reverse_iteratorIPP9AlgorithmEC1B8ne180100ES3_, symObjAddr: 0x2284, symBinAddr: 0x1000055D0, symSize: 0x34 }
  - { offset: 0x1030B, size: 0x8, addend: 0x0, symName: __ZNKSt3__116reverse_iteratorIPP9AlgorithmE4baseB8ne180100Ev, symObjAddr: 0x22B8, symBinAddr: 0x100005604, symSize: 0x18 }
  - { offset: 0x10331, size: 0x8, addend: 0x0, symName: __ZNKSt3__16vectorIP9AlgorithmNS_9allocatorIS2_EEE14__annotate_newB8ne180100Em, symObjAddr: 0x230C, symBinAddr: 0x100005658, symSize: 0x14 }
  - { offset: 0x10389, size: 0x8, addend: 0x0, symName: __ZNKSt3__111__move_loopINS_17_ClassicAlgPolicyEEclB8ne180100INS_16reverse_iteratorIPP9AlgorithmEES8_S8_EENS_4pairIT_T1_EESA_T0_SB_, symObjAddr: 0x2610, symBinAddr: 0x10000595C, symSize: 0xA0 }
  - { offset: 0x103F9, size: 0x8, addend: 0x0, symName: __ZNSt3__18_IterOpsINS_17_ClassicAlgPolicyEE11__iter_moveB8ne180100IRNS_16reverse_iteratorIPP9AlgorithmEELi0EEEDTclsr3stdE4movedeclsr3stdE7declvalIRT_EEEEOSA_, symObjAddr: 0x2844, symBinAddr: 0x100005B90, symSize: 0x28 }
  - { offset: 0x1042B, size: 0x8, addend: 0x0, symName: __ZNKSt3__116reverse_iteratorIPP9AlgorithmEdeB8ne180100Ev, symObjAddr: 0x286C, symBinAddr: 0x100005BB8, symSize: 0x28 }
  - { offset: 0x1045F, size: 0x8, addend: 0x0, symName: __ZNSt3__116reverse_iteratorIPP9AlgorithmEppB8ne180100Ev, symObjAddr: 0x2894, symBinAddr: 0x100005BE0, symSize: 0x20 }
  - { offset: 0x10485, size: 0x8, addend: 0x0, symName: __ZNSt3__18_IterOpsINS_17_ClassicAlgPolicyEE25__validate_iter_referenceB8ne180100IRNS_16reverse_iteratorIPP9AlgorithmEEEEvv, symObjAddr: 0x28B4, symBinAddr: 0x100005C00, symSize: 0x4 }
  - { offset: 0x104A3, size: 0x8, addend: 0x0, symName: __ZNSt3__118__unwrap_iter_implINS_16reverse_iteratorIPP9AlgorithmEELb0EE8__unwrapB8ne180100ES5_, symObjAddr: 0x28B8, symBinAddr: 0x100005C04, symSize: 0x24 }
  - { offset: 0x104CB, size: 0x8, addend: 0x0, symName: __ZNSt3__14pairINS_16reverse_iteratorIPP9AlgorithmEES5_EC1B8ne180100IS5_S5_Li0EEEOT_OT0_, symObjAddr: 0x28DC, symBinAddr: 0x100005C28, symSize: 0x3C }
  - { offset: 0x10529, size: 0x8, addend: 0x0, symName: __ZNSt3__14pairINS_16reverse_iteratorIPP9AlgorithmEES5_EC2B8ne180100IS5_S5_Li0EEEOT_OT0_, symObjAddr: 0x2918, symBinAddr: 0x100005C64, symSize: 0x34 }
  - { offset: 0x10587, size: 0x8, addend: 0x0, symName: __ZNSt3__118__unwrap_iter_implINS_16reverse_iteratorIPP9AlgorithmEELb0EE8__rewrapB8ne180100ES5_S5_, symObjAddr: 0x294C, symBinAddr: 0x100005C98, symSize: 0x2C }
  - { offset: 0x105B5, size: 0x8, addend: 0x0, symName: __ZNSt3__116reverse_iteratorIPP9AlgorithmEC2B8ne180100ES3_, symObjAddr: 0x2978, symBinAddr: 0x100005CC4, symSize: 0x28 }
  - { offset: 0x105ED, size: 0x8, addend: 0x0, symName: __ZNSt3__114__split_bufferIP9AlgorithmRNS_9allocatorIS2_EEED2Ev, symObjAddr: 0x29A0, symBinAddr: 0x100005CEC, symSize: 0x8C }
  - { offset: 0x10619, size: 0x8, addend: 0x0, symName: __ZNSt3__114__split_bufferIP9AlgorithmRNS_9allocatorIS2_EEE5clearB8ne180100Ev, symObjAddr: 0x2A2C, symBinAddr: 0x100005D78, symSize: 0x28 }
  - { offset: 0x1063F, size: 0x8, addend: 0x0, symName: __ZNSt3__116allocator_traitsINS_9allocatorIP9AlgorithmEEE10deallocateB8ne180100ERS4_PS3_m, symObjAddr: 0x2A54, symBinAddr: 0x100005DA0, symSize: 0x34 }
  - { offset: 0x10681, size: 0x8, addend: 0x0, symName: __ZNKSt3__114__split_bufferIP9AlgorithmRNS_9allocatorIS2_EEE8capacityB8ne180100Ev, symObjAddr: 0x2A88, symBinAddr: 0x100005DD4, symSize: 0x40 }
  - { offset: 0x106A7, size: 0x8, addend: 0x0, symName: __ZNSt3__114__split_bufferIP9AlgorithmRNS_9allocatorIS2_EEE17__destruct_at_endB8ne180100EPS2_, symObjAddr: 0x2AC8, symBinAddr: 0x100005E14, symSize: 0x2C }
  - { offset: 0x106DB, size: 0x8, addend: 0x0, symName: __ZNSt3__114__split_bufferIP9AlgorithmRNS_9allocatorIS2_EEE17__destruct_at_endB8ne180100EPS2_NS_17integral_constantIbLb0EEE, symObjAddr: 0x2AF4, symBinAddr: 0x100005E40, symSize: 0x80 }
  - { offset: 0x1071C, size: 0x8, addend: 0x0, symName: __ZNSt3__116allocator_traitsINS_9allocatorIP9AlgorithmEEE7destroyB8ne180100IS3_vEEvRS4_PT_, symObjAddr: 0x2B74, symBinAddr: 0x100005EC0, symSize: 0x2C }
  - { offset: 0x10759, size: 0x8, addend: 0x0, symName: __ZNSt3__19allocatorIP9AlgorithmE7destroyB8ne180100EPS2_, symObjAddr: 0x2BA0, symBinAddr: 0x100005EEC, symSize: 0x14 }
  - { offset: 0x1078D, size: 0x8, addend: 0x0, symName: __ZNSt3__19allocatorIP9AlgorithmE10deallocateB8ne180100EPS2_m, symObjAddr: 0x2BB4, symBinAddr: 0x100005F00, symSize: 0x40 }
  - { offset: 0x107CF, size: 0x8, addend: 0x0, symName: __ZNKSt3__114__split_bufferIP9AlgorithmRNS_9allocatorIS2_EEE9__end_capB8ne180100Ev, symObjAddr: 0x2C70, symBinAddr: 0x100005FBC, symSize: 0x28 }
  - { offset: 0x107F5, size: 0x8, addend: 0x0, symName: __ZNKSt3__117__compressed_pairIPP9AlgorithmRNS_9allocatorIS2_EEE5firstB8ne180100Ev, symObjAddr: 0x2C98, symBinAddr: 0x100005FE4, symSize: 0x24 }
  - { offset: 0x1081B, size: 0x8, addend: 0x0, symName: __ZN13SelectionSortC2Ev, symObjAddr: 0x2CBC, symBinAddr: 0x100006008, symSize: 0x88 }
  - { offset: 0x10845, size: 0x8, addend: 0x0, symName: __ZN9AlgorithmC2ENSt3__112basic_stringIcNS0_11char_traitsIcEENS0_9allocatorIcEEEEi, symObjAddr: 0x2D44, symBinAddr: 0x100006090, symSize: 0xA4 }
  - { offset: 0x1088C, size: 0x8, addend: 0x0, symName: __ZN13SelectionSort4sortENSt3__16vectorIiNS0_9allocatorIiEEEE, symObjAddr: 0x2DE8, symBinAddr: 0x100006134, symSize: 0x224 }
  - { offset: 0x10978, size: 0x8, addend: 0x0, symName: __ZNSt3__112basic_stringIcNS_11char_traitsIcEENS_9allocatorIcEEEC1B8ne180100Ev, symObjAddr: 0x300C, symBinAddr: 0x100006358, symSize: 0x2C }
  - { offset: 0x109A2, size: 0x8, addend: 0x0, symName: __ZN9Algorithm4sortENSt3__16vectorIiNS0_9allocatorIiEEEE, symObjAddr: 0x3038, symBinAddr: 0x100006384, symSize: 0x14 }
  - { offset: 0x109D7, size: 0x8, addend: 0x0, symName: __ZNSt3__112basic_stringIcNS_11char_traitsIcEENS_9allocatorIcEEEC2B8ne180100Ev, symObjAddr: 0x304C, symBinAddr: 0x100006398, symSize: 0x48 }
  - { offset: 0x10A06, size: 0x8, addend: 0x0, symName: __ZNSt3__117__compressed_pairINS_12basic_stringIcNS_11char_traitsIcEENS_9allocatorIcEEE5__repES5_EC1B8ne180100INS_16__value_init_tagENS_18__default_init_tagEEEOT_OT0_, symObjAddr: 0x3094, symBinAddr: 0x1000063E0, symSize: 0x3C }
  - { offset: 0x10A5E, size: 0x8, addend: 0x0, symName: __ZNKSt3__112basic_stringIcNS_11char_traitsIcEENS_9allocatorIcEEE14__annotate_newB8ne180100Em, symObjAddr: 0x30D0, symBinAddr: 0x10000641C, symSize: 0x14 }
  - { offset: 0x10A93, size: 0x8, addend: 0x0, symName: __ZNSt3__117__compressed_pairINS_12basic_stringIcNS_11char_traitsIcEENS_9allocatorIcEEE5__repES5_EC2B8ne180100INS_16__value_init_tagENS_18__default_init_tagEEEOT_OT0_, symObjAddr: 0x30E4, symBinAddr: 0x100006430, symSize: 0x3C }
  - { offset: 0x10AEB, size: 0x8, addend: 0x0, symName: __ZNSt3__122__compressed_pair_elemINS_12basic_stringIcNS_11char_traitsIcEENS_9allocatorIcEEE5__repELi0ELb0EEC2B8ne180100ENS_16__value_init_tagE, symObjAddr: 0x3120, symBinAddr: 0x10000646C, symSize: 0x20 }
  - { offset: 0x10B20, size: 0x8, addend: 0x0, symName: __ZNSt3__122__compressed_pair_elemINS_9allocatorIcEELi1ELb1EEC2B8ne180100ENS_18__default_init_tagE, symObjAddr: 0x3140, symBinAddr: 0x10000648C, symSize: 0x2C }
  - { offset: 0x10B55, size: 0x8, addend: 0x0, symName: __ZNSt3__19allocatorIcEC2B8ne180100Ev, symObjAddr: 0x316C, symBinAddr: 0x1000064B8, symSize: 0x2C }
  - { offset: 0x10B7F, size: 0x8, addend: 0x0, symName: __ZNSt3__116__non_trivial_ifILb1ENS_9allocatorIcEEEC2B8ne180100Ev, symObjAddr: 0x3198, symBinAddr: 0x1000064E4, symSize: 0x14 }
  - { offset: 0x10BA9, size: 0x8, addend: 0x0, symName: __ZNKSt3__16vectorIiNS_9allocatorIiEEE4sizeB8ne180100Ev, symObjAddr: 0x31AC, symBinAddr: 0x1000064F8, symSize: 0x28 }
  - { offset: 0x10BCF, size: 0x8, addend: 0x0, symName: __ZNSt3__16vectorIiNS_9allocatorIiEEEixB8ne180100Em, symObjAddr: 0x31D4, symBinAddr: 0x100006520, symSize: 0x24 }
  - { offset: 0x10C06, size: 0x8, addend: 0x0, symName: __ZNSt3__16chrono8durationIdNS_5ratioILl1ELl1000EEEEC1B8ne180100IxNS2_ILl1ELl1000000000EEELi0EEERKNS1_IT_T0_EE, symObjAddr: 0x3250, symBinAddr: 0x10000659C, symSize: 0x34 }
  - { offset: 0x10C56, size: 0x8, addend: 0x0, symName: __ZNKSt3__16chrono8durationIdNS_5ratioILl1ELl1000EEEE5countB8ne180100Ev, symObjAddr: 0x3284, symBinAddr: 0x1000065D0, symSize: 0x18 }
  - { offset: 0x10C9A, size: 0x8, addend: 0x0, symName: __ZNKSt3__16chrono10time_pointINS0_12steady_clockENS0_8durationIxNS_5ratioILl1ELl1000000000EEEEEE16time_since_epochB8ne180100Ev, symObjAddr: 0x3308, symBinAddr: 0x100006654, symSize: 0x20 }
  - { offset: 0x10CC0, size: 0x8, addend: 0x0, symName: __ZNKSt3__16chrono8durationIxNS_5ratioILl1ELl1000000000EEEE5countB8ne180100Ev, symObjAddr: 0x3328, symBinAddr: 0x100006674, symSize: 0x18 }
  - { offset: 0x10CF0, size: 0x8, addend: 0x0, symName: __ZNSt3__16chrono8durationIxNS_5ratioILl1ELl1000000000EEEEC1B8ne180100IxLi0EEERKT_, symObjAddr: 0x3340, symBinAddr: 0x10000668C, symSize: 0x34 }
  - { offset: 0x10D37, size: 0x8, addend: 0x0, symName: __ZNSt3__16chrono8durationIxNS_5ratioILl1ELl1000000000EEEEC2B8ne180100IxLi0EEERKT_, symObjAddr: 0x3374, symBinAddr: 0x1000066C0, symSize: 0x24 }
  - { offset: 0x10D7E, size: 0x8, addend: 0x0, symName: __ZNSt3__16chrono8durationIdNS_5ratioILl1ELl1000EEEEC2B8ne180100IxNS2_ILl1ELl1000000000EEELi0EEERKNS1_IT_T0_EE, symObjAddr: 0x3398, symBinAddr: 0x1000066E4, symSize: 0x44 }
  - { offset: 0x10DD8, size: 0x8, addend: 0x0, symName: __ZNSt3__16chrono8durationIdNS_5ratioILl1ELl1000EEEEC1B8ne180100IdLi0EEERKT_, symObjAddr: 0x3458, symBinAddr: 0x1000067A4, symSize: 0x34 }
  - { offset: 0x10E1F, size: 0x8, addend: 0x0, symName: __ZNSt3__16chrono8durationIdNS_5ratioILl1ELl1000EEEEC2B8ne180100IdLi0EEERKT_, symObjAddr: 0x348C, symBinAddr: 0x1000067D8, symSize: 0x24 }
  - { offset: 0x10E66, size: 0x8, addend: 0x0, symName: __ZN10BubbleSortC2Ev, symObjAddr: 0x34B0, symBinAddr: 0x1000067FC, symSize: 0x88 }
  - { offset: 0x10E90, size: 0x8, addend: 0x0, symName: __ZN10BubbleSort4sortENSt3__16vectorIiNS0_9allocatorIiEEEE, symObjAddr: 0x3538, symBinAddr: 0x100006884, symSize: 0x220 }
  - { offset: 0x10F5F, size: 0x8, addend: 0x0, symName: __ZN9MergeSortC2Ev, symObjAddr: 0x3758, symBinAddr: 0x100006AA4, symSize: 0x88 }
  - { offset: 0x10F89, size: 0x8, addend: 0x0, symName: __ZN9MergeSort4sortENSt3__16vectorIiNS0_9allocatorIiEEEE, symObjAddr: 0x37E0, symBinAddr: 0x100006B2C, symSize: 0xFC }
  - { offset: 0x10FF6, size: 0x8, addend: 0x0, symName: __ZN9MergeSort10merge_sortERNSt3__16vectorIiNS0_9allocatorIiEEEEii, symObjAddr: 0x38DC, symBinAddr: 0x100006C28, symSize: 0xB0 }
  - { offset: 0x11062, size: 0x8, addend: 0x0, symName: __ZN9MergeSort5mergeERNSt3__16vectorIiNS0_9allocatorIiEEEEiii, symObjAddr: 0x398C, symBinAddr: 0x100006CD8, symSize: 0x348 }
  - { offset: 0x1115B, size: 0x8, addend: 0x0, symName: __ZNSt3__16vectorIiNS_9allocatorIiEEEC1Em, symObjAddr: 0x3CD4, symBinAddr: 0x100007020, symSize: 0x34 }
  - { offset: 0x11196, size: 0x8, addend: 0x0, symName: __ZNSt3__16vectorIiNS_9allocatorIiEEEC2Em, symObjAddr: 0x3D08, symBinAddr: 0x100007054, symSize: 0xD4 }
  - { offset: 0x111E6, size: 0x8, addend: 0x0, symName: __ZNSt3__117__compressed_pairIPiNS_9allocatorIiEEEC1B8ne180100IDnNS_18__default_init_tagEEEOT_OT0_, symObjAddr: 0x3DDC, symBinAddr: 0x100007128, symSize: 0x3C }
  - { offset: 0x1123E, size: 0x8, addend: 0x0, symName: __ZNSt3__16vectorIiNS_9allocatorIiEEE16__destroy_vectorC1B8ne180100ERS3_, symObjAddr: 0x3E58, symBinAddr: 0x1000071A4, symSize: 0x34 }
  - { offset: 0x11277, size: 0x8, addend: 0x0, symName: __ZNSt3__16vectorIiNS_9allocatorIiEEE11__vallocateB8ne180100Em, symObjAddr: 0x3E8C, symBinAddr: 0x1000071D8, symSize: 0xAC }
  - { offset: 0x112BB, size: 0x8, addend: 0x0, symName: __ZNSt3__16vectorIiNS_9allocatorIiEEE18__construct_at_endEm, symObjAddr: 0x3F38, symBinAddr: 0x100007284, symSize: 0xC8 }
  - { offset: 0x1132D, size: 0x8, addend: 0x0, symName: __ZNSt3__128__exception_guard_exceptionsINS_6vectorIiNS_9allocatorIiEEE16__destroy_vectorEE10__completeB8ne180100Ev, symObjAddr: 0x4000, symBinAddr: 0x10000734C, symSize: 0x1C }
  - { offset: 0x11353, size: 0x8, addend: 0x0, symName: __ZNSt3__128__exception_guard_exceptionsINS_6vectorIiNS_9allocatorIiEEE16__destroy_vectorEED1B8ne180100Ev, symObjAddr: 0x401C, symBinAddr: 0x100007368, symSize: 0x2C }
  - { offset: 0x1137D, size: 0x8, addend: 0x0, symName: __ZNSt3__117__compressed_pairIPiNS_9allocatorIiEEEC2B8ne180100IDnNS_18__default_init_tagEEEOT_OT0_, symObjAddr: 0x4048, symBinAddr: 0x100007394, symSize: 0x40 }
  - { offset: 0x113D5, size: 0x8, addend: 0x0, symName: __ZNSt3__122__compressed_pair_elemIPiLi0ELb0EEC2B8ne180100IDnvEEOT_, symObjAddr: 0x4088, symBinAddr: 0x1000073D4, symSize: 0x1C }
  - { offset: 0x11417, size: 0x8, addend: 0x0, symName: __ZNSt3__122__compressed_pair_elemINS_9allocatorIiEELi1ELb1EEC2B8ne180100ENS_18__default_init_tagE, symObjAddr: 0x40A4, symBinAddr: 0x1000073F0, symSize: 0x2C }
  - { offset: 0x1144C, size: 0x8, addend: 0x0, symName: __ZNSt3__19allocatorIiEC2B8ne180100Ev, symObjAddr: 0x40D0, symBinAddr: 0x10000741C, symSize: 0x2C }
  - { offset: 0x11476, size: 0x8, addend: 0x0, symName: __ZNSt3__116__non_trivial_ifILb1ENS_9allocatorIiEEEC2B8ne180100Ev, symObjAddr: 0x40FC, symBinAddr: 0x100007448, symSize: 0x14 }
  - { offset: 0x114A0, size: 0x8, addend: 0x0, symName: __ZNSt3__128__exception_guard_exceptionsINS_6vectorIiNS_9allocatorIiEEE16__destroy_vectorEEC1B8ne180100ES5_, symObjAddr: 0x4110, symBinAddr: 0x10000745C, symSize: 0x34 }
  - { offset: 0x114D8, size: 0x8, addend: 0x0, symName: __ZNSt3__128__exception_guard_exceptionsINS_6vectorIiNS_9allocatorIiEEE16__destroy_vectorEEC2B8ne180100ES5_, symObjAddr: 0x4144, symBinAddr: 0x100007490, symSize: 0x24 }
  - { offset: 0x11510, size: 0x8, addend: 0x0, symName: __ZNSt3__16vectorIiNS_9allocatorIiEEE16__destroy_vectorC2B8ne180100ERS3_, symObjAddr: 0x4168, symBinAddr: 0x1000074B4, symSize: 0x20 }
  - { offset: 0x11549, size: 0x8, addend: 0x0, symName: __ZNKSt3__16vectorIiNS_9allocatorIiEEE8max_sizeEv, symObjAddr: 0x4188, symBinAddr: 0x1000074D4, symSize: 0x60 }
  - { offset: 0x11571, size: 0x8, addend: 0x0, symName: __ZNKSt3__16vectorIiNS_9allocatorIiEEE20__throw_length_errorB8ne180100Ev, symObjAddr: 0x41E8, symBinAddr: 0x100007534, symSize: 0x1C }
  - { offset: 0x11597, size: 0x8, addend: 0x0, symName: __ZNSt3__16vectorIiNS_9allocatorIiEEE7__allocB8ne180100Ev, symObjAddr: 0x4244, symBinAddr: 0x100007590, symSize: 0x28 }
  - { offset: 0x115BD, size: 0x8, addend: 0x0, symName: __ZNSt3__16vectorIiNS_9allocatorIiEEE9__end_capB8ne180100Ev, symObjAddr: 0x426C, symBinAddr: 0x1000075B8, symSize: 0x28 }
  - { offset: 0x115E3, size: 0x8, addend: 0x0, symName: __ZNKSt3__16vectorIiNS_9allocatorIiEEE14__annotate_newB8ne180100Em, symObjAddr: 0x4294, symBinAddr: 0x1000075E0, symSize: 0x14 }
  - { offset: 0x11622, size: 0x8, addend: 0x0, symName: __ZNSt3__116allocator_traitsINS_9allocatorIiEEE8max_sizeB8ne180100IS2_vEEmRKS2_, symObjAddr: 0x42A8, symBinAddr: 0x1000075F4, symSize: 0x24 }
  - { offset: 0x11650, size: 0x8, addend: 0x0, symName: __ZNKSt3__16vectorIiNS_9allocatorIiEEE7__allocB8ne180100Ev, symObjAddr: 0x42CC, symBinAddr: 0x100007618, symSize: 0x28 }
  - { offset: 0x11676, size: 0x8, addend: 0x0, symName: __ZNKSt3__19allocatorIiE8max_sizeB8ne180100Ev, symObjAddr: 0x42F4, symBinAddr: 0x100007640, symSize: 0x14 }
  - { offset: 0x1169C, size: 0x8, addend: 0x0, symName: __ZNKSt3__117__compressed_pairIPiNS_9allocatorIiEEE6secondB8ne180100Ev, symObjAddr: 0x4308, symBinAddr: 0x100007654, symSize: 0x24 }
  - { offset: 0x116C2, size: 0x8, addend: 0x0, symName: __ZNKSt3__122__compressed_pair_elemINS_9allocatorIiEELi1ELb1EE5__getB8ne180100Ev, symObjAddr: 0x432C, symBinAddr: 0x100007678, symSize: 0x14 }
  - { offset: 0x116E8, size: 0x8, addend: 0x0, symName: __ZNSt3__19allocatorIiE8allocateB8ne180100Em, symObjAddr: 0x4340, symBinAddr: 0x10000768C, symSize: 0x58 }
  - { offset: 0x1171C, size: 0x8, addend: 0x0, symName: __ZNSt3__117__compressed_pairIPiNS_9allocatorIiEEE6secondB8ne180100Ev, symObjAddr: 0x4398, symBinAddr: 0x1000076E4, symSize: 0x24 }
  - { offset: 0x11742, size: 0x8, addend: 0x0, symName: __ZNSt3__122__compressed_pair_elemINS_9allocatorIiEELi1ELb1EE5__getB8ne180100Ev, symObjAddr: 0x43BC, symBinAddr: 0x100007708, symSize: 0x14 }
  - { offset: 0x11768, size: 0x8, addend: 0x0, symName: __ZNSt3__117__compressed_pairIPiNS_9allocatorIiEEE5firstB8ne180100Ev, symObjAddr: 0x43D0, symBinAddr: 0x10000771C, symSize: 0x24 }
  - { offset: 0x1178E, size: 0x8, addend: 0x0, symName: __ZNSt3__122__compressed_pair_elemIPiLi0ELb0EE5__getB8ne180100Ev, symObjAddr: 0x43F4, symBinAddr: 0x100007740, symSize: 0x14 }
  - { offset: 0x117CD, size: 0x8, addend: 0x0, symName: __ZNSt3__16vectorIiNS_9allocatorIiEEE21_ConstructTransactionC1B8ne180100ERS3_m, symObjAddr: 0x4408, symBinAddr: 0x100007754, symSize: 0x3C }
  - { offset: 0x11815, size: 0x8, addend: 0x0, symName: __ZNSt3__116allocator_traitsINS_9allocatorIiEEE9constructB8ne180100IiJEvEEvRS2_PT_DpOT0_, symObjAddr: 0x4444, symBinAddr: 0x100007790, symSize: 0x2C }
  - { offset: 0x11857, size: 0x8, addend: 0x0, symName: __ZNSt3__16vectorIiNS_9allocatorIiEEE21_ConstructTransactionD1B8ne180100Ev, symObjAddr: 0x4484, symBinAddr: 0x1000077D0, symSize: 0x2C }
  - { offset: 0x11881, size: 0x8, addend: 0x0, symName: __ZNSt3__16vectorIiNS_9allocatorIiEEE21_ConstructTransactionC2B8ne180100ERS3_m, symObjAddr: 0x44B0, symBinAddr: 0x1000077FC, symSize: 0x44 }
  - { offset: 0x118C9, size: 0x8, addend: 0x0, symName: __ZNSt3__19allocatorIiE9constructB8ne180100IiJEEEvPT_DpOT0_, symObjAddr: 0x44F4, symBinAddr: 0x100007840, symSize: 0x1C }
  - { offset: 0x1190B, size: 0x8, addend: 0x0, symName: __ZNSt3__16vectorIiNS_9allocatorIiEEE21_ConstructTransactionD2B8ne180100Ev, symObjAddr: 0x4510, symBinAddr: 0x10000785C, symSize: 0x20 }
  - { offset: 0x11935, size: 0x8, addend: 0x0, symName: __ZNSt3__128__exception_guard_exceptionsINS_6vectorIiNS_9allocatorIiEEE16__destroy_vectorEED2B8ne180100Ev, symObjAddr: 0x4530, symBinAddr: 0x10000787C, symSize: 0x50 }
  - { offset: 0x1195F, size: 0x8, addend: 0x0, symName: __ZNSt3__16vectorIiNS_9allocatorIiEEE16__destroy_vectorclB8ne180100Ev, symObjAddr: 0x4580, symBinAddr: 0x1000078CC, symSize: 0x90 }
  - { offset: 0x11985, size: 0x8, addend: 0x0, symName: __ZNSt3__16vectorIiNS_9allocatorIiEEE7__clearB8ne180100Ev, symObjAddr: 0x4610, symBinAddr: 0x10000795C, symSize: 0x28 }
  - { offset: 0x119AB, size: 0x8, addend: 0x0, symName: __ZNKSt3__16vectorIiNS_9allocatorIiEEE17__annotate_deleteB8ne180100Ev, symObjAddr: 0x4638, symBinAddr: 0x100007984, symSize: 0x10 }
  - { offset: 0x119D1, size: 0x8, addend: 0x0, symName: __ZNSt3__116allocator_traitsINS_9allocatorIiEEE10deallocateB8ne180100ERS2_Pim, symObjAddr: 0x4648, symBinAddr: 0x100007994, symSize: 0x34 }
  - { offset: 0x11A13, size: 0x8, addend: 0x0, symName: __ZNKSt3__16vectorIiNS_9allocatorIiEEE8capacityB8ne180100Ev, symObjAddr: 0x467C, symBinAddr: 0x1000079C8, symSize: 0x40 }
  - { offset: 0x11A39, size: 0x8, addend: 0x0, symName: __ZNSt3__16vectorIiNS_9allocatorIiEEE22__base_destruct_at_endB8ne180100EPi, symObjAddr: 0x46BC, symBinAddr: 0x100007A08, symSize: 0x8C }
  - { offset: 0x11A7D, size: 0x8, addend: 0x0, symName: __ZNSt3__116allocator_traitsINS_9allocatorIiEEE7destroyB8ne180100IivEEvRS2_PT_, symObjAddr: 0x4748, symBinAddr: 0x100007A94, symSize: 0x2C }
  - { offset: 0x11ABA, size: 0x8, addend: 0x0, symName: __ZNSt3__19allocatorIiE7destroyB8ne180100EPi, symObjAddr: 0x4774, symBinAddr: 0x100007AC0, symSize: 0x14 }
  - { offset: 0x11AEE, size: 0x8, addend: 0x0, symName: __ZNSt3__19allocatorIiE10deallocateB8ne180100EPim, symObjAddr: 0x4788, symBinAddr: 0x100007AD4, symSize: 0x40 }
  - { offset: 0x11B30, size: 0x8, addend: 0x0, symName: __ZNKSt3__16vectorIiNS_9allocatorIiEEE9__end_capB8ne180100Ev, symObjAddr: 0x47C8, symBinAddr: 0x100007B14, symSize: 0x28 }
  - { offset: 0x11B56, size: 0x8, addend: 0x0, symName: __ZNKSt3__117__compressed_pairIPiNS_9allocatorIiEEE5firstB8ne180100Ev, symObjAddr: 0x47F0, symBinAddr: 0x100007B3C, symSize: 0x24 }
  - { offset: 0x11B7C, size: 0x8, addend: 0x0, symName: __ZNKSt3__122__compressed_pair_elemIPiLi0ELb0EE5__getB8ne180100Ev, symObjAddr: 0x4814, symBinAddr: 0x100007B60, symSize: 0x14 }
  - { offset: 0x11BA2, size: 0x8, addend: 0x0, symName: __ZN13InsertionSortC2Ev, symObjAddr: 0x4828, symBinAddr: 0x100007B74, symSize: 0x88 }
  - { offset: 0x11BCC, size: 0x8, addend: 0x0, symName: __ZN13InsertionSort4sortENSt3__16vectorIiNS0_9allocatorIiEEEE, symObjAddr: 0x48B0, symBinAddr: 0x100007BFC, symSize: 0x1F8 }
  - { offset: 0x11C8D, size: 0x8, addend: 0x0, symName: __ZN9QuickSortC2Ev, symObjAddr: 0x4AA8, symBinAddr: 0x100007DF4, symSize: 0x88 }
  - { offset: 0x11CB7, size: 0x8, addend: 0x0, symName: __ZN9QuickSort4sortENSt3__16vectorIiNS0_9allocatorIiEEEE, symObjAddr: 0x4B30, symBinAddr: 0x100007E7C, symSize: 0x100 }
  - { offset: 0x11D38, size: 0x8, addend: 0x0, symName: __ZN9QuickSort9quickSortERNSt3__16vectorIiNS0_9allocatorIiEEEEii, symObjAddr: 0x4C30, symBinAddr: 0x100007F7C, symSize: 0x98 }
  - { offset: 0x11DA8, size: 0x8, addend: 0x0, symName: __ZN9QuickSort9partitionERNSt3__16vectorIiNS0_9allocatorIiEEEEii, symObjAddr: 0x4CC8, symBinAddr: 0x100008014, symSize: 0x11C }
  - { offset: 0x11E30, size: 0x8, addend: 0x0, symName: __ZN8HeapSortC2Ev, symObjAddr: 0x4E20, symBinAddr: 0x10000816C, symSize: 0x88 }
  - { offset: 0x11E5A, size: 0x8, addend: 0x0, symName: __ZN8HeapSort4sortENSt3__16vectorIiNS0_9allocatorIiEEEE, symObjAddr: 0x4EA8, symBinAddr: 0x1000081F4, symSize: 0xF4 }
  - { offset: 0x11EDB, size: 0x8, addend: 0x0, symName: __ZN8HeapSort8heapSortERNSt3__16vectorIiNS0_9allocatorIiEEEE, symObjAddr: 0x4F9C, symBinAddr: 0x1000082E8, symSize: 0x100 }
  - { offset: 0x11F59, size: 0x8, addend: 0x0, symName: __ZN8HeapSort7heapifyERNSt3__16vectorIiNS0_9allocatorIiEEEEii, symObjAddr: 0x509C, symBinAddr: 0x1000083E8, symSize: 0x16C }
  - { offset: 0x11FD9, size: 0x8, addend: 0x0, symName: __ZN9CycleSortC2Ev, symObjAddr: 0x5208, symBinAddr: 0x100008554, symSize: 0x88 }
  - { offset: 0x12003, size: 0x8, addend: 0x0, symName: __ZN9CycleSort4sortENSt3__16vectorIiNS0_9allocatorIiEEEE, symObjAddr: 0x5290, symBinAddr: 0x1000085DC, symSize: 0x370 }
  - { offset: 0x1210B, size: 0x8, addend: 0x0, symName: __ZNSt3__16vectorIP9AlgorithmNS_9allocatorIS2_EEED2B8ne180100Ev, symObjAddr: 0x5600, symBinAddr: 0x10000894C, symSize: 0x44 }
  - { offset: 0x12135, size: 0x8, addend: 0x0, symName: __ZNSt3__16vectorIP9AlgorithmNS_9allocatorIS2_EEE16__destroy_vectorC1B8ne180100ERS5_, symObjAddr: 0x5644, symBinAddr: 0x100008990, symSize: 0x34 }
  - { offset: 0x1216E, size: 0x8, addend: 0x0, symName: __ZNSt3__16vectorIP9AlgorithmNS_9allocatorIS2_EEE16__destroy_vectorclB8ne180100Ev, symObjAddr: 0x5678, symBinAddr: 0x1000089C4, symSize: 0x90 }
  - { offset: 0x12194, size: 0x8, addend: 0x0, symName: __ZNSt3__16vectorIP9AlgorithmNS_9allocatorIS2_EEE16__destroy_vectorC2B8ne180100ERS5_, symObjAddr: 0x5708, symBinAddr: 0x100008A54, symSize: 0x20 }
  - { offset: 0x121CD, size: 0x8, addend: 0x0, symName: __ZNSt3__16vectorIP9AlgorithmNS_9allocatorIS2_EEE7__clearB8ne180100Ev, symObjAddr: 0x5728, symBinAddr: 0x100008A74, symSize: 0x28 }
  - { offset: 0x121F3, size: 0x8, addend: 0x0, symName: __ZNSt3__16vectorIP9AlgorithmNS_9allocatorIS2_EEE22__base_destruct_at_endB8ne180100EPS2_, symObjAddr: 0x5750, symBinAddr: 0x100008A9C, symSize: 0x8C }
  - { offset: 0x12237, size: 0x8, addend: 0x0, symName: __ZNSt3__16vectorIP9AlgorithmNS_9allocatorIS2_EEEixB8ne180100Em, symObjAddr: 0x5870, symBinAddr: 0x100008BBC, symSize: 0x24 }
  - { offset: 0x1226E, size: 0x8, addend: 0x0, symName: __ZNSt3__113basic_ostreamIcNS_11char_traitsIcEEElsB8ne180100EPFRS3_S4_E, symObjAddr: 0x5894, symBinAddr: 0x100008BE0, symSize: 0x2C }
  - { offset: 0x122A2, size: 0x8, addend: 0x0, symName: __ZN10Tournament13simluateMatchEP9AlgorithmS1_NSt3__16vectorIiNS2_9allocatorIiEEEE, symObjAddr: 0x5918, symBinAddr: 0x100008C64, symSize: 0x360 }
  - { offset: 0x122F6, size: 0x8, addend: 0x0, symName: __ZNKSt3__112basic_stringIcNS_11char_traitsIcEENS_9allocatorIcEEE4dataB8ne180100Ev, symObjAddr: 0x5E64, symBinAddr: 0x1000091B0, symSize: 0x28 }
  - { offset: 0x1231C, size: 0x8, addend: 0x0, symName: __ZNKSt3__112basic_stringIcNS_11char_traitsIcEENS_9allocatorIcEEE4sizeB8ne180100Ev, symObjAddr: 0x5E8C, symBinAddr: 0x1000091D8, symSize: 0x54 }
  - { offset: 0x12360, size: 0x8, addend: 0x0, symName: __ZNKSt3__113basic_ostreamIcNS_11char_traitsIcEEE6sentrycvbB8ne180100Ev, symObjAddr: 0x5EE0, symBinAddr: 0x10000922C, symSize: 0x1C }
  - { offset: 0x12386, size: 0x8, addend: 0x0, symName: __ZNSt3__119ostreambuf_iteratorIcNS_11char_traitsIcEEEC1B8ne180100ERNS_13basic_ostreamIcS2_EE, symObjAddr: 0x613C, symBinAddr: 0x100009488, symSize: 0x34 }
  - { offset: 0x123BE, size: 0x8, addend: 0x0, symName: __ZNKSt3__18ios_base5flagsB8ne180100Ev, symObjAddr: 0x6170, symBinAddr: 0x1000094BC, symSize: 0x18 }
  - { offset: 0x123E6, size: 0x8, addend: 0x0, symName: __ZNKSt3__19basic_iosIcNS_11char_traitsIcEEE4fillB8ne180100Ev, symObjAddr: 0x6188, symBinAddr: 0x1000094D4, symSize: 0x64 }
  - { offset: 0x1240E, size: 0x8, addend: 0x0, symName: __ZNKSt3__119ostreambuf_iteratorIcNS_11char_traitsIcEEE6failedB8ne180100Ev, symObjAddr: 0x61EC, symBinAddr: 0x100009538, symSize: 0x24 }
  - { offset: 0x12434, size: 0x8, addend: 0x0, symName: __ZNSt3__19basic_iosIcNS_11char_traitsIcEEE8setstateB8ne180100Ej, symObjAddr: 0x6210, symBinAddr: 0x10000955C, symSize: 0x2C }
  - { offset: 0x12469, size: 0x8, addend: 0x0, symName: __ZNKSt3__18ios_base5widthB8ne180100Ev, symObjAddr: 0x623C, symBinAddr: 0x100009588, symSize: 0x18 }
  - { offset: 0x12491, size: 0x8, addend: 0x0, symName: __ZNSt3__115basic_streambufIcNS_11char_traitsIcEEE5sputnB8ne180100EPKcl, symObjAddr: 0x6254, symBinAddr: 0x1000095A0, symSize: 0x3C }
  - { offset: 0x124D3, size: 0x8, addend: 0x0, symName: __ZNSt3__112basic_stringIcNS_11char_traitsIcEENS_9allocatorIcEEEC1B8ne180100Emc, symObjAddr: 0x6290, symBinAddr: 0x1000095DC, symSize: 0x3C }
  - { offset: 0x1251B, size: 0x8, addend: 0x0, symName: __ZNSt3__18ios_base5widthB8ne180100El, symObjAddr: 0x62CC, symBinAddr: 0x100009618, symSize: 0x2C }
  - { offset: 0x12561, size: 0x8, addend: 0x0, symName: __ZNSt3__112basic_stringIcNS_11char_traitsIcEENS_9allocatorIcEEEC2B8ne180100Emc, symObjAddr: 0x62F8, symBinAddr: 0x100009644, symSize: 0x4C }
  - { offset: 0x125A9, size: 0x8, addend: 0x0, symName: __ZNSt3__117__compressed_pairINS_12basic_stringIcNS_11char_traitsIcEENS_9allocatorIcEEE5__repES5_EC1B8ne180100INS_18__default_init_tagESA_EEOT_OT0_, symObjAddr: 0x6344, symBinAddr: 0x100009690, symSize: 0x3C }
  - { offset: 0x12601, size: 0x8, addend: 0x0, symName: __ZNSt3__117__compressed_pairINS_12basic_stringIcNS_11char_traitsIcEENS_9allocatorIcEEE5__repES5_EC2B8ne180100INS_18__default_init_tagESA_EEOT_OT0_, symObjAddr: 0x6380, symBinAddr: 0x1000096CC, symSize: 0x3C }
  - { offset: 0x12659, size: 0x8, addend: 0x0, symName: __ZNSt3__122__compressed_pair_elemINS_12basic_stringIcNS_11char_traitsIcEENS_9allocatorIcEEE5__repELi0ELb0EEC2B8ne180100ENS_18__default_init_tagE, symObjAddr: 0x63BC, symBinAddr: 0x100009708, symSize: 0x14 }
  - { offset: 0x1268E, size: 0x8, addend: 0x0, symName: __ZNSt3__119ostreambuf_iteratorIcNS_11char_traitsIcEEEC2B8ne180100ERNS_13basic_ostreamIcS2_EE, symObjAddr: 0x63D0, symBinAddr: 0x10000971C, symSize: 0x54 }
  - { offset: 0x126C6, size: 0x8, addend: 0x0, symName: __ZNKSt3__19basic_iosIcNS_11char_traitsIcEEE5rdbufB8ne180100Ev, symObjAddr: 0x6424, symBinAddr: 0x100009770, symSize: 0x24 }
  - { offset: 0x126EE, size: 0x8, addend: 0x0, symName: __ZNKSt3__18ios_base5rdbufB8ne180100Ev, symObjAddr: 0x6448, symBinAddr: 0x100009794, symSize: 0x18 }
  - { offset: 0x12714, size: 0x8, addend: 0x0, symName: __ZNSt3__111char_traitsIcE11eq_int_typeB8ne180100Eii, symObjAddr: 0x6460, symBinAddr: 0x1000097AC, symSize: 0x28 }
  - { offset: 0x12747, size: 0x8, addend: 0x0, symName: __ZNSt3__111char_traitsIcE3eofB8ne180100Ev, symObjAddr: 0x6488, symBinAddr: 0x1000097D4, symSize: 0x8 }
  - { offset: 0x1275B, size: 0x8, addend: 0x0, symName: __ZNKSt3__19basic_iosIcNS_11char_traitsIcEEE5widenB8ne180100Ec, symObjAddr: 0x6490, symBinAddr: 0x1000097DC, symSize: 0x84 }
  - { offset: 0x127CF, size: 0x8, addend: 0x0, symName: __ZNKSt3__15ctypeIcE5widenB8ne180100Ec, symObjAddr: 0x6540, symBinAddr: 0x10000988C, symSize: 0x38 }
  - { offset: 0x12804, size: 0x8, addend: 0x0, symName: __ZNSt3__18ios_base8setstateB8ne180100Ej, symObjAddr: 0x6578, symBinAddr: 0x1000098C4, symSize: 0x34 }
  - { offset: 0x1283B, size: 0x8, addend: 0x0, symName: __ZNKSt3__112basic_stringIcNS_11char_traitsIcEENS_9allocatorIcEEE13__get_pointerB8ne180100Ev, symObjAddr: 0x65C0, symBinAddr: 0x10000990C, symSize: 0x54 }
  - { offset: 0x12861, size: 0x8, addend: 0x0, symName: __ZNKSt3__112basic_stringIcNS_11char_traitsIcEENS_9allocatorIcEEE9__is_longB8ne180100Ev, symObjAddr: 0x6614, symBinAddr: 0x100009960, symSize: 0x38 }
  - { offset: 0x12887, size: 0x8, addend: 0x0, symName: __ZNKSt3__112basic_stringIcNS_11char_traitsIcEENS_9allocatorIcEEE18__get_long_pointerB8ne180100Ev, symObjAddr: 0x664C, symBinAddr: 0x100009998, symSize: 0x28 }
  - { offset: 0x128AD, size: 0x8, addend: 0x0, symName: __ZNKSt3__112basic_stringIcNS_11char_traitsIcEENS_9allocatorIcEEE19__get_short_pointerB8ne180100Ev, symObjAddr: 0x6674, symBinAddr: 0x1000099C0, symSize: 0x28 }
  - { offset: 0x128D3, size: 0x8, addend: 0x0, symName: __ZNKSt3__117__compressed_pairINS_12basic_stringIcNS_11char_traitsIcEENS_9allocatorIcEEE5__repES5_E5firstB8ne180100Ev, symObjAddr: 0x669C, symBinAddr: 0x1000099E8, symSize: 0x24 }
  - { offset: 0x128F9, size: 0x8, addend: 0x0, symName: __ZNKSt3__122__compressed_pair_elemINS_12basic_stringIcNS_11char_traitsIcEENS_9allocatorIcEEE5__repELi0ELb0EE5__getB8ne180100Ev, symObjAddr: 0x66C0, symBinAddr: 0x100009A0C, symSize: 0x14 }
  - { offset: 0x1291F, size: 0x8, addend: 0x0, symName: __ZNSt3__114pointer_traitsIPKcE10pointer_toB8ne180100ERS1_, symObjAddr: 0x66D4, symBinAddr: 0x100009A20, symSize: 0x14 }
  - { offset: 0x12942, size: 0x8, addend: 0x0, symName: __ZNKSt3__112basic_stringIcNS_11char_traitsIcEENS_9allocatorIcEEE15__get_long_sizeB8ne180100Ev, symObjAddr: 0x66E8, symBinAddr: 0x100009A34, symSize: 0x28 }
  - { offset: 0x12968, size: 0x8, addend: 0x0, symName: __ZNKSt3__112basic_stringIcNS_11char_traitsIcEENS_9allocatorIcEEE16__get_short_sizeB8ne180100Ev, symObjAddr: 0x6710, symBinAddr: 0x100009A5C, symSize: 0x34 }
  - { offset: 0x1298E, size: 0x8, addend: 0x0, symName: __ZNSt3__111char_traitsIcE6lengthB8ne180100EPKc, symObjAddr: 0x6744, symBinAddr: 0x100009A90, symSize: 0x34 }
  - { offset: 0x129B1, size: 0x8, addend: 0x0, symName: __ZNSt3__18ios_base9precisionB8ne180100El, symObjAddr: 0x6808, symBinAddr: 0x100009B54, symSize: 0x2C }
  - { offset: 0x129F7, size: 0x8, addend: 0x0, symName: __ZNSt3__18__iom_t5C1B8ne180100Ei, symObjAddr: 0x6834, symBinAddr: 0x100009B80, symSize: 0x34 }
  - { offset: 0x12A2F, size: 0x8, addend: 0x0, symName: __ZNSt3__18__iom_t5C2B8ne180100Ei, symObjAddr: 0x6868, symBinAddr: 0x100009BB4, symSize: 0x20 }
  - { offset: 0x12A67, size: 0x8, addend: 0x0, symName: __ZNSt3__16vectorIP9AlgorithmNS_9allocatorIS2_EEEC1ERKS5_, symObjAddr: 0x6888, symBinAddr: 0x100009BD4, symSize: 0x34 }
  - { offset: 0x12AA2, size: 0x8, addend: 0x0, symName: __ZNSt3__16vectorIP9AlgorithmNS_9allocatorIS2_EEE5beginB8ne180100Ev, symObjAddr: 0x68FC, symBinAddr: 0x100009C48, symSize: 0x30 }
  - { offset: 0x12ACA, size: 0x8, addend: 0x0, symName: __ZNSt3__16vectorIP9AlgorithmNS_9allocatorIS2_EEE3endB8ne180100Ev, symObjAddr: 0x692C, symBinAddr: 0x100009C78, symSize: 0x30 }
  - { offset: 0x12AF2, size: 0x8, addend: 0x0, symName: __ZNKSt3__111__wrap_iterIPP9AlgorithmEdeB8ne180100Ev, symObjAddr: 0x6990, symBinAddr: 0x100009CDC, symSize: 0x18 }
  - { offset: 0x12B18, size: 0x8, addend: 0x0, symName: __ZNSt3__113basic_ostreamIcNS_11char_traitsIcEEElsB8ne180100EPFRNS_8ios_baseES5_E, symObjAddr: 0x6A14, symBinAddr: 0x100009D60, symSize: 0x40 }
  - { offset: 0x12B4C, size: 0x8, addend: 0x0, symName: __ZNSt3__111__wrap_iterIPP9AlgorithmEppB8ne180100Ev, symObjAddr: 0x6A84, symBinAddr: 0x100009DD0, symSize: 0x20 }
  - { offset: 0x12B72, size: 0x8, addend: 0x0, symName: __ZNSt3__16vectorIP9AlgorithmNS_9allocatorIS2_EEEC2ERKS5_, symObjAddr: 0x6AA4, symBinAddr: 0x100009DF0, symSize: 0x94 }
  - { offset: 0x12BAD, size: 0x8, addend: 0x0, symName: __ZNSt3__116allocator_traitsINS_9allocatorIP9AlgorithmEEE37select_on_container_copy_constructionB8ne180100IS4_vvEES4_RKS4_, symObjAddr: 0x6B38, symBinAddr: 0x100009E84, symSize: 0x10 }
  - { offset: 0x12BE1, size: 0x8, addend: 0x0, symName: __ZNSt3__117__compressed_pairIPP9AlgorithmNS_9allocatorIS2_EEEC1B8ne180100IDnS5_EEOT_OT0_, symObjAddr: 0x6B48, symBinAddr: 0x100009E94, symSize: 0x3C }
  - { offset: 0x12C39, size: 0x8, addend: 0x0, symName: __ZNSt3__16vectorIP9AlgorithmNS_9allocatorIS2_EEE16__init_with_sizeB8ne180100IPS2_S7_EEvT_T0_m, symObjAddr: 0x6B84, symBinAddr: 0x100009ED0, symSize: 0xB8 }
  - { offset: 0x12CAD, size: 0x8, addend: 0x0, symName: __ZNSt3__117__compressed_pairIPP9AlgorithmNS_9allocatorIS2_EEEC2B8ne180100IDnS5_EEOT_OT0_, symObjAddr: 0x6C3C, symBinAddr: 0x100009F88, symSize: 0x44 }
  - { offset: 0x12D05, size: 0x8, addend: 0x0, symName: __ZNSt3__122__compressed_pair_elemINS_9allocatorIP9AlgorithmEELi1ELb1EEC2B8ne180100IS4_vEEOT_, symObjAddr: 0x6C80, symBinAddr: 0x100009FCC, symSize: 0x18 }
  - { offset: 0x12D47, size: 0x8, addend: 0x0, symName: __ZNSt3__16vectorIP9AlgorithmNS_9allocatorIS2_EEE11__vallocateB8ne180100Em, symObjAddr: 0x6CD8, symBinAddr: 0x10000A024, symSize: 0xAC }
  - { offset: 0x12D8B, size: 0x8, addend: 0x0, symName: __ZNSt3__16vectorIP9AlgorithmNS_9allocatorIS2_EEE18__construct_at_endIPS2_S7_EEvT_T0_m, symObjAddr: 0x6D84, symBinAddr: 0x10000A0D0, symSize: 0x8C }
  - { offset: 0x12E01, size: 0x8, addend: 0x0, symName: __ZNSt3__128__exception_guard_exceptionsINS_6vectorIP9AlgorithmNS_9allocatorIS3_EEE16__destroy_vectorEE10__completeB8ne180100Ev, symObjAddr: 0x6E10, symBinAddr: 0x10000A15C, symSize: 0x1C }
  - { offset: 0x12E27, size: 0x8, addend: 0x0, symName: __ZNSt3__128__exception_guard_exceptionsINS_6vectorIP9AlgorithmNS_9allocatorIS3_EEE16__destroy_vectorEED1B8ne180100Ev, symObjAddr: 0x6E2C, symBinAddr: 0x10000A178, symSize: 0x2C }
  - { offset: 0x12E51, size: 0x8, addend: 0x0, symName: __ZNSt3__128__exception_guard_exceptionsINS_6vectorIP9AlgorithmNS_9allocatorIS3_EEE16__destroy_vectorEEC1B8ne180100ES7_, symObjAddr: 0x6E58, symBinAddr: 0x10000A1A4, symSize: 0x34 }
  - { offset: 0x12E89, size: 0x8, addend: 0x0, symName: __ZNSt3__128__exception_guard_exceptionsINS_6vectorIP9AlgorithmNS_9allocatorIS3_EEE16__destroy_vectorEEC2B8ne180100ES7_, symObjAddr: 0x6E8C, symBinAddr: 0x10000A1D8, symSize: 0x24 }
  - { offset: 0x12EDF, size: 0x8, addend: 0x0, symName: __ZNSt3__14pairIPP9AlgorithmS3_EC1B8ne180100IS3_S3_Li0EEEOT_OT0_, symObjAddr: 0x7060, symBinAddr: 0x10000A3AC, symSize: 0x3C }
  - { offset: 0x12F3D, size: 0x8, addend: 0x0, symName: __ZNSt3__14pairIPP9AlgorithmS3_EC2B8ne180100IS3_S3_Li0EEEOT_OT0_, symObjAddr: 0x709C, symBinAddr: 0x10000A3E8, symSize: 0x34 }
  - { offset: 0x12FA5, size: 0x8, addend: 0x0, symName: __ZNKSt3__114__copy_trivialclB8ne180100IP9AlgorithmS3_Li0EEENS_4pairIPT_PT0_EES6_S6_S8_, symObjAddr: 0x724C, symBinAddr: 0x10000A598, symSize: 0x48 }
  - { offset: 0x1300D, size: 0x8, addend: 0x0, symName: __ZNSt3__14pairIPP9AlgorithmS3_EC1B8ne180100IRS3_S3_Li0EEEOT_OT0_, symObjAddr: 0x73DC, symBinAddr: 0x10000A728, symSize: 0x3C }
  - { offset: 0x1306B, size: 0x8, addend: 0x0, symName: __ZNSt3__14pairIPP9AlgorithmS3_EC2B8ne180100IRS3_S3_Li0EEEOT_OT0_, symObjAddr: 0x7418, symBinAddr: 0x10000A764, symSize: 0x34 }
  - { offset: 0x130C9, size: 0x8, addend: 0x0, symName: __ZNSt3__118__unwrap_iter_implIPP9AlgorithmLb1EE8__unwrapB8ne180100ES3_, symObjAddr: 0x744C, symBinAddr: 0x10000A798, symSize: 0x24 }
  - { offset: 0x130EC, size: 0x8, addend: 0x0, symName: __ZNSt3__118__unwrap_iter_implIPP9AlgorithmLb1EE8__rewrapB8ne180100ES3_S3_, symObjAddr: 0x7470, symBinAddr: 0x10000A7BC, symSize: 0x50 }
  - { offset: 0x1311D, size: 0x8, addend: 0x0, symName: __ZNSt3__128__exception_guard_exceptionsINS_6vectorIP9AlgorithmNS_9allocatorIS3_EEE16__destroy_vectorEED2B8ne180100Ev, symObjAddr: 0x74C0, symBinAddr: 0x10000A80C, symSize: 0x48 }
  - { offset: 0x13151, size: 0x8, addend: 0x0, symName: __ZZN10Tournament16printLeaderboardEvENKUlP9AlgorithmS1_E_clES1_S1_, symObjAddr: 0x7B34, symBinAddr: 0x10000AE80, symSize: 0x34 }
  - { offset: 0x13199, size: 0x8, addend: 0x0, symName: __ZNSt3__18_IterOpsINS_17_ClassicAlgPolicyEE9iter_swapB8ne180100IRPP9AlgorithmS7_EEvOT_OT0_, symObjAddr: 0x7B68, symBinAddr: 0x10000AEB4, symSize: 0x34 }
  - { offset: 0x131DC, size: 0x8, addend: 0x0, symName: __ZNSt3__18_IterOpsINS_17_ClassicAlgPolicyEE9iter_swapB8ne180100IRPP9AlgorithmS6_EEvOT_OT0_, symObjAddr: 0x80F0, symBinAddr: 0x10000B43C, symSize: 0x34 }
  - { offset: 0x1321F, size: 0x8, addend: 0x0, symName: __ZNSt3__18_IterOpsINS_17_ClassicAlgPolicyEE11__iter_moveB8ne180100IRPP9AlgorithmLi0EEEDTclsr3stdE4movedeclsr3stdE7declvalIRT_EEEEOS8_, symObjAddr: 0x8E14, symBinAddr: 0x10000C160, symSize: 0x28 }
  - { offset: 0x13251, size: 0x8, addend: 0x0, symName: __ZNSt3__18_IterOpsINS_17_ClassicAlgPolicyEE25__validate_iter_referenceB8ne180100IRPP9AlgorithmEEvv, symObjAddr: 0x8E3C, symBinAddr: 0x10000C188, symSize: 0x4 }
  - { offset: 0x1326F, size: 0x8, addend: 0x0, symName: __ZNSt3__18_IterOpsINS_17_ClassicAlgPolicyEE4nextB8ne180100IPP9AlgorithmEET_S7_S7_, symObjAddr: 0x8E40, symBinAddr: 0x10000C18C, symSize: 0x18 }
  - { offset: 0x132A6, size: 0x8, addend: 0x0, symName: __ZNSt3__18_IterOpsINS_17_ClassicAlgPolicyEE9iter_swapB8ne180100IPP9AlgorithmS6_EEvOT_OT0_, symObjAddr: 0x9DDC, symBinAddr: 0x10000D128, symSize: 0x34 }
  - { offset: 0x13302, size: 0x8, addend: 0x0, symName: __ZNSt3__14pairIPP9AlgorithmbEC1B8ne180100IRS3_RbLi0EEEOT_OT0_, symObjAddr: 0x9E2C, symBinAddr: 0x10000D178, symSize: 0x3C }
  - { offset: 0x13360, size: 0x8, addend: 0x0, symName: __ZNSt3__14pairIPP9AlgorithmbEC2B8ne180100IRS3_RbLi0EEEOT_OT0_, symObjAddr: 0x9E68, symBinAddr: 0x10000D1B4, symSize: 0x38 }
  - { offset: 0x133BE, size: 0x8, addend: 0x0, symName: __ZNSt3__118__unwrap_iter_implINS_11__wrap_iterIPP9AlgorithmEELb1EE8__unwrapB8ne180100ES5_, symObjAddr: 0x9EA0, symBinAddr: 0x10000D1EC, symSize: 0x28 }
  - { offset: 0x133EB, size: 0x8, addend: 0x0, symName: __ZNSt3__119__to_address_helperINS_11__wrap_iterIPP9AlgorithmEEvE6__callB8ne180100ERKS5_, symObjAddr: 0x9EEC, symBinAddr: 0x10000D238, symSize: 0x30 }
  - { offset: 0x1340E, size: 0x8, addend: 0x0, symName: __ZNSt3__114pointer_traitsINS_11__wrap_iterIPP9AlgorithmEEE10to_addressB8ne180100ES5_, symObjAddr: 0x9F1C, symBinAddr: 0x10000D268, symSize: 0x2C }
  - { offset: 0x13431, size: 0x8, addend: 0x0, symName: __ZNKSt3__111__wrap_iterIPP9AlgorithmE4baseB8ne180100Ev, symObjAddr: 0x9F48, symBinAddr: 0x10000D294, symSize: 0x18 }
  - { offset: 0x13457, size: 0x8, addend: 0x0, symName: __ZNSt3__16vectorIP9AlgorithmNS_9allocatorIS2_EEE11__make_iterB8ne180100EPS2_, symObjAddr: 0x9F60, symBinAddr: 0x10000D2AC, symSize: 0x30 }
  - { offset: 0x1348C, size: 0x8, addend: 0x0, symName: __ZNSt3__111__wrap_iterIPP9AlgorithmEC1B8ne180100ES3_, symObjAddr: 0x9F90, symBinAddr: 0x10000D2DC, symSize: 0x34 }
  - { offset: 0x134C4, size: 0x8, addend: 0x0, symName: __ZNSt3__111__wrap_iterIPP9AlgorithmEC2B8ne180100ES3_, symObjAddr: 0x9FC4, symBinAddr: 0x10000D310, symSize: 0x20 }
  - { offset: 0x134FC, size: 0x8, addend: 0x0, symName: __ZNSt3__18__iom_t6C1B8ne180100Ei, symObjAddr: 0xA02C, symBinAddr: 0x10000D378, symSize: 0x34 }
  - { offset: 0x13534, size: 0x8, addend: 0x0, symName: __ZNSt3__18__iom_t6C2B8ne180100Ei, symObjAddr: 0xA060, symBinAddr: 0x10000D3AC, symSize: 0x20 }
  - { offset: 0x1356C, size: 0x8, addend: 0x0, symName: __ZNSt3__18ios_base4setfB8ne180100Ejj, symObjAddr: 0xA080, symBinAddr: 0x10000D3CC, symSize: 0x5C }
  - { offset: 0x135C1, size: 0x8, addend: 0x0, symName: __ZNSt3__18ios_base6unsetfB8ne180100Ej, symObjAddr: 0xA0DC, symBinAddr: 0x10000D428, symSize: 0x28 }
  - { offset: 0x135F8, size: 0x8, addend: 0x0, symName: __ZN10TournamentD2Ev, symObjAddr: 0xA104, symBinAddr: 0x10000D450, symSize: 0xB4 }
  - { offset: 0x13674, size: 0x8, addend: 0x0, symName: __ZN9AlgorithmD1Ev, symObjAddr: 0xA1B8, symBinAddr: 0x10000D504, symSize: 0x2C }
  - { offset: 0x136A0, size: 0x8, addend: 0x0, symName: __ZN9AlgorithmD2Ev, symObjAddr: 0xA1E4, symBinAddr: 0x10000D530, symSize: 0x40 }
  - { offset: 0x136CC, size: 0x8, addend: 0x0, symName: __ZNSt3__112basic_stringIcNS_11char_traitsIcEENS_9allocatorIcEEEC2B8ne180100ILi0EEEPKc, symObjAddr: 0xA224, symBinAddr: 0x10000D570, symSize: 0x58 }
  - { offset: 0x1370B, size: 0x8, addend: 0x0, symName: __ZNSt3__16vectorIiNS_9allocatorIiEEED2B8ne180100Ev, symObjAddr: 0xA27C, symBinAddr: 0x10000D5C8, symSize: 0x40 }
  - { offset: 0x13735, size: 0x8, addend: 0x0, symName: __ZNSt3__16vectorIiNS_9allocatorIiEEEC2ERKS3_, symObjAddr: 0xA2BC, symBinAddr: 0x10000D608, symSize: 0x94 }
  - { offset: 0x13770, size: 0x8, addend: 0x0, symName: __ZNSt3__116allocator_traitsINS_9allocatorIiEEE37select_on_container_copy_constructionB8ne180100IS2_vvEES2_RKS2_, symObjAddr: 0xA350, symBinAddr: 0x10000D69C, symSize: 0x10 }
  - { offset: 0x137A4, size: 0x8, addend: 0x0, symName: __ZNSt3__117__compressed_pairIPiNS_9allocatorIiEEEC1B8ne180100IDnS3_EEOT_OT0_, symObjAddr: 0xA360, symBinAddr: 0x10000D6AC, symSize: 0x3C }
  - { offset: 0x137FC, size: 0x8, addend: 0x0, symName: __ZNSt3__16vectorIiNS_9allocatorIiEEE16__init_with_sizeB8ne180100IPiS5_EEvT_T0_m, symObjAddr: 0xA39C, symBinAddr: 0x10000D6E8, symSize: 0xB8 }
  - { offset: 0x13870, size: 0x8, addend: 0x0, symName: __ZNSt3__117__compressed_pairIPiNS_9allocatorIiEEEC2B8ne180100IDnS3_EEOT_OT0_, symObjAddr: 0xA454, symBinAddr: 0x10000D7A0, symSize: 0x44 }
  - { offset: 0x138C8, size: 0x8, addend: 0x0, symName: __ZNSt3__122__compressed_pair_elemINS_9allocatorIiEELi1ELb1EEC2B8ne180100IS2_vEEOT_, symObjAddr: 0xA498, symBinAddr: 0x10000D7E4, symSize: 0x18 }
  - { offset: 0x1390A, size: 0x8, addend: 0x0, symName: __ZNSt3__16vectorIiNS_9allocatorIiEEE18__construct_at_endIPiS5_EEvT_T0_m, symObjAddr: 0xA4B0, symBinAddr: 0x10000D7FC, symSize: 0x8C }
  - { offset: 0x1399E, size: 0x8, addend: 0x0, symName: __ZNSt3__14pairIPiS1_EC1B8ne180100IS1_S1_Li0EEEOT_OT0_, symObjAddr: 0xA6EC, symBinAddr: 0x10000DA38, symSize: 0x3C }
  - { offset: 0x139FC, size: 0x8, addend: 0x0, symName: __ZNSt3__14pairIPiS1_EC2B8ne180100IS1_S1_Li0EEEOT_OT0_, symObjAddr: 0xA728, symBinAddr: 0x10000DA74, symSize: 0x34 }
  - { offset: 0x13A5A, size: 0x8, addend: 0x0, symName: __ZNKSt3__114__copy_trivialclB8ne180100IiiLi0EEENS_4pairIPT_PT0_EES4_S4_S6_, symObjAddr: 0xA8D8, symBinAddr: 0x10000DC24, symSize: 0x48 }
  - { offset: 0x13AC2, size: 0x8, addend: 0x0, symName: __ZNSt3__14pairIPiS1_EC1B8ne180100IRS1_S1_Li0EEEOT_OT0_, symObjAddr: 0xAA68, symBinAddr: 0x10000DDB4, symSize: 0x3C }
  - { offset: 0x13B20, size: 0x8, addend: 0x0, symName: __ZNSt3__14pairIPiS1_EC2B8ne180100IRS1_S1_Li0EEEOT_OT0_, symObjAddr: 0xAAA4, symBinAddr: 0x10000DDF0, symSize: 0x34 }
  - { offset: 0x13B7E, size: 0x8, addend: 0x0, symName: __ZNSt3__118__unwrap_iter_implIPiLb1EE8__unwrapB8ne180100ES1_, symObjAddr: 0xAAD8, symBinAddr: 0x10000DE24, symSize: 0x24 }
  - { offset: 0x13BA1, size: 0x8, addend: 0x0, symName: __ZNSt3__118__unwrap_iter_implIPiLb1EE8__rewrapB8ne180100ES1_S1_, symObjAddr: 0xAAFC, symBinAddr: 0x10000DE48, symSize: 0x50 }
  - { offset: 0x13BD2, size: 0x8, addend: 0x0, symName: __ZNSt3__19basic_iosIcNS_11char_traitsIcEEEC2B8ne180100Ev, symObjAddr: 0xAB4C, symBinAddr: 0x10000DE98, symSize: 0x3C }
  - { offset: 0x13BFC, size: 0x8, addend: 0x0, symName: __ZNSt3__113basic_istreamIcNS_11char_traitsIcEEEC2B8ne180100EPNS_15basic_streambufIcS2_EE, symObjAddr: 0xAB88, symBinAddr: 0x10000DED4, symSize: 0x64 }
  - { offset: 0x13C41, size: 0x8, addend: 0x0, symName: __ZNSt3__113basic_filebufIcNS_11char_traitsIcEEE4openERKNS_12basic_stringIcS2_NS_9allocatorIcEEEEj, symObjAddr: 0xABEC, symBinAddr: 0x10000DF38, symSize: 0x44 }
  - { offset: 0x13C87, size: 0x8, addend: 0x0, symName: __ZNSt3__18ios_baseC2B8ne180100Ev, symObjAddr: 0xAC30, symBinAddr: 0x10000DF7C, symSize: 0x24 }
  - { offset: 0x13CB1, size: 0x8, addend: 0x0, symName: __ZNSt3__19basic_iosIcNS_11char_traitsIcEEE4initB8ne180100EPNS_15basic_streambufIcS2_EE, symObjAddr: 0xAC54, symBinAddr: 0x10000DFA0, symSize: 0x44 }
  - { offset: 0x13CE8, size: 0x8, addend: 0x0, symName: __ZNKSt3__112basic_stringIcNS_11char_traitsIcEENS_9allocatorIcEEE5c_strB8ne180100Ev, symObjAddr: 0xAC98, symBinAddr: 0x10000DFE4, symSize: 0x24 }
  - { offset: 0x13D0E, size: 0x8, addend: 0x0, symName: __ZNKSt3__113basic_filebufIcNS_11char_traitsIcEEE7is_openEv, symObjAddr: 0xACBC, symBinAddr: 0x10000E008, symSize: 0x24 }
  - { offset: 0x13D36, size: 0x8, addend: 0x0, symName: __ZNKSt3__19basic_iosIcNS_11char_traitsIcEEE4failB8ne180100Ev, symObjAddr: 0xACE0, symBinAddr: 0x10000E02C, symSize: 0x28 }
  - { offset: 0x13D5C, size: 0x8, addend: 0x0, symName: __ZNKSt3__18ios_base4failB8ne180100Ev, symObjAddr: 0xAD08, symBinAddr: 0x10000E054, symSize: 0x28 }
  - { offset: 0x13D84, size: 0x8, addend: 0x0, symName: __ZNSt3__16vectorIiNS_9allocatorIiEEE22__construct_one_at_endB8ne180100IJRKiEEEvDpOT_, symObjAddr: 0xAD30, symBinAddr: 0x10000E07C, symSize: 0x90 }
  - { offset: 0x13DD3, size: 0x8, addend: 0x0, symName: __ZNSt3__16vectorIiNS_9allocatorIiEEE21__push_back_slow_pathIRKiEEPiOT_, symObjAddr: 0xADC0, symBinAddr: 0x10000E10C, symSize: 0xE8 }
  - { offset: 0x13E31, size: 0x8, addend: 0x0, symName: __ZNSt3__116allocator_traitsINS_9allocatorIiEEE9constructB8ne180100IiJRKiEvEEvRS2_PT_DpOT0_, symObjAddr: 0xAEA8, symBinAddr: 0x10000E1F4, symSize: 0x34 }
  - { offset: 0x13E88, size: 0x8, addend: 0x0, symName: __ZNSt3__19allocatorIiE9constructB8ne180100IiJRKiEEEvPT_DpOT0_, symObjAddr: 0xAEDC, symBinAddr: 0x10000E228, symSize: 0x28 }
  - { offset: 0x13EDE, size: 0x8, addend: 0x0, symName: __ZNKSt3__16vectorIiNS_9allocatorIiEEE11__recommendB8ne180100Em, symObjAddr: 0xAF04, symBinAddr: 0x10000E250, symSize: 0xB4 }
  - { offset: 0x13F33, size: 0x8, addend: 0x0, symName: __ZNSt3__114__split_bufferIiRNS_9allocatorIiEEEC1EmmS3_, symObjAddr: 0xAFB8, symBinAddr: 0x10000E304, symSize: 0x44 }
  - { offset: 0x13F89, size: 0x8, addend: 0x0, symName: __ZNSt3__114__split_bufferIiRNS_9allocatorIiEEED1Ev, symObjAddr: 0xB10C, symBinAddr: 0x10000E458, symSize: 0x2C }
  - { offset: 0x13FB5, size: 0x8, addend: 0x0, symName: __ZNSt3__114__split_bufferIiRNS_9allocatorIiEEEC2EmmS3_, symObjAddr: 0xB138, symBinAddr: 0x10000E484, symSize: 0xD4 }
  - { offset: 0x14028, size: 0x8, addend: 0x0, symName: __ZNSt3__117__compressed_pairIPiRNS_9allocatorIiEEEC1B8ne180100IDnS4_EEOT_OT0_, symObjAddr: 0xB20C, symBinAddr: 0x10000E558, symSize: 0x3C }
  - { offset: 0x14080, size: 0x8, addend: 0x0, symName: __ZNSt3__114__split_bufferIiRNS_9allocatorIiEEE7__allocB8ne180100Ev, symObjAddr: 0xB248, symBinAddr: 0x10000E594, symSize: 0x28 }
  - { offset: 0x140A6, size: 0x8, addend: 0x0, symName: __ZNSt3__114__split_bufferIiRNS_9allocatorIiEEE9__end_capB8ne180100Ev, symObjAddr: 0xB270, symBinAddr: 0x10000E5BC, symSize: 0x28 }
  - { offset: 0x140CC, size: 0x8, addend: 0x0, symName: __ZNSt3__117__compressed_pairIPiRNS_9allocatorIiEEEC2B8ne180100IDnS4_EEOT_OT0_, symObjAddr: 0xB298, symBinAddr: 0x10000E5E4, symSize: 0x48 }
  - { offset: 0x14124, size: 0x8, addend: 0x0, symName: __ZNSt3__122__compressed_pair_elemIRNS_9allocatorIiEELi1ELb0EEC2B8ne180100IS3_vEEOT_, symObjAddr: 0xB2E0, symBinAddr: 0x10000E62C, symSize: 0x20 }
  - { offset: 0x14166, size: 0x8, addend: 0x0, symName: __ZNSt3__117__compressed_pairIPiRNS_9allocatorIiEEE6secondB8ne180100Ev, symObjAddr: 0xB300, symBinAddr: 0x10000E64C, symSize: 0x28 }
  - { offset: 0x1418C, size: 0x8, addend: 0x0, symName: __ZNSt3__122__compressed_pair_elemIRNS_9allocatorIiEELi1ELb0EE5__getB8ne180100Ev, symObjAddr: 0xB328, symBinAddr: 0x10000E674, symSize: 0x18 }
  - { offset: 0x141B2, size: 0x8, addend: 0x0, symName: __ZNSt3__117__compressed_pairIPiRNS_9allocatorIiEEE5firstB8ne180100Ev, symObjAddr: 0xB340, symBinAddr: 0x10000E68C, symSize: 0x24 }
  - { offset: 0x141D8, size: 0x8, addend: 0x0, symName: __ZNSt3__116reverse_iteratorIPiEC1B8ne180100ES1_, symObjAddr: 0xB3DC, symBinAddr: 0x10000E728, symSize: 0x34 }
  - { offset: 0x14210, size: 0x8, addend: 0x0, symName: __ZNKSt3__116reverse_iteratorIPiE4baseB8ne180100Ev, symObjAddr: 0xB410, symBinAddr: 0x10000E75C, symSize: 0x18 }
  - { offset: 0x1424F, size: 0x8, addend: 0x0, symName: __ZNKSt3__111__move_loopINS_17_ClassicAlgPolicyEEclB8ne180100INS_16reverse_iteratorIPiEES6_S6_EENS_4pairIT_T1_EES8_T0_S9_, symObjAddr: 0xB754, symBinAddr: 0x10000EAA0, symSize: 0xA0 }
  - { offset: 0x142BF, size: 0x8, addend: 0x0, symName: __ZNSt3__18_IterOpsINS_17_ClassicAlgPolicyEE11__iter_moveB8ne180100IRNS_16reverse_iteratorIPiEELi0EEEDTclsr3stdE4movedeclsr3stdE7declvalIRT_EEEEOS8_, symObjAddr: 0xB988, symBinAddr: 0x10000ECD4, symSize: 0x28 }
  - { offset: 0x142F1, size: 0x8, addend: 0x0, symName: __ZNKSt3__116reverse_iteratorIPiEdeB8ne180100Ev, symObjAddr: 0xB9B0, symBinAddr: 0x10000ECFC, symSize: 0x28 }
  - { offset: 0x14325, size: 0x8, addend: 0x0, symName: __ZNSt3__116reverse_iteratorIPiEppB8ne180100Ev, symObjAddr: 0xB9D8, symBinAddr: 0x10000ED24, symSize: 0x20 }
  - { offset: 0x1434B, size: 0x8, addend: 0x0, symName: __ZNSt3__18_IterOpsINS_17_ClassicAlgPolicyEE25__validate_iter_referenceB8ne180100IRNS_16reverse_iteratorIPiEEEEvv, symObjAddr: 0xB9F8, symBinAddr: 0x10000ED44, symSize: 0x4 }
  - { offset: 0x14369, size: 0x8, addend: 0x0, symName: __ZNSt3__118__unwrap_iter_implINS_16reverse_iteratorIPiEELb0EE8__unwrapB8ne180100ES3_, symObjAddr: 0xB9FC, symBinAddr: 0x10000ED48, symSize: 0x24 }
  - { offset: 0x14391, size: 0x8, addend: 0x0, symName: __ZNSt3__14pairINS_16reverse_iteratorIPiEES3_EC1B8ne180100IS3_S3_Li0EEEOT_OT0_, symObjAddr: 0xBA20, symBinAddr: 0x10000ED6C, symSize: 0x3C }
  - { offset: 0x143EF, size: 0x8, addend: 0x0, symName: __ZNSt3__14pairINS_16reverse_iteratorIPiEES3_EC2B8ne180100IS3_S3_Li0EEEOT_OT0_, symObjAddr: 0xBA5C, symBinAddr: 0x10000EDA8, symSize: 0x34 }
  - { offset: 0x1444D, size: 0x8, addend: 0x0, symName: __ZNSt3__118__unwrap_iter_implINS_16reverse_iteratorIPiEELb0EE8__rewrapB8ne180100ES3_S3_, symObjAddr: 0xBA90, symBinAddr: 0x10000EDDC, symSize: 0x2C }
  - { offset: 0x1447B, size: 0x8, addend: 0x0, symName: __ZNSt3__116reverse_iteratorIPiEC2B8ne180100ES1_, symObjAddr: 0xBABC, symBinAddr: 0x10000EE08, symSize: 0x28 }
  - { offset: 0x144B3, size: 0x8, addend: 0x0, symName: __ZNSt3__114__split_bufferIiRNS_9allocatorIiEEED2Ev, symObjAddr: 0xBAE4, symBinAddr: 0x10000EE30, symSize: 0x8C }
  - { offset: 0x144DF, size: 0x8, addend: 0x0, symName: __ZNSt3__114__split_bufferIiRNS_9allocatorIiEEE5clearB8ne180100Ev, symObjAddr: 0xBB70, symBinAddr: 0x10000EEBC, symSize: 0x28 }
  - { offset: 0x14505, size: 0x8, addend: 0x0, symName: __ZNKSt3__114__split_bufferIiRNS_9allocatorIiEEE8capacityB8ne180100Ev, symObjAddr: 0xBB98, symBinAddr: 0x10000EEE4, symSize: 0x40 }
  - { offset: 0x1452B, size: 0x8, addend: 0x0, symName: __ZNSt3__114__split_bufferIiRNS_9allocatorIiEEE17__destruct_at_endB8ne180100EPi, symObjAddr: 0xBBD8, symBinAddr: 0x10000EF24, symSize: 0x2C }
  - { offset: 0x1455F, size: 0x8, addend: 0x0, symName: __ZNSt3__114__split_bufferIiRNS_9allocatorIiEEE17__destruct_at_endB8ne180100EPiNS_17integral_constantIbLb0EEE, symObjAddr: 0xBC04, symBinAddr: 0x10000EF50, symSize: 0x80 }
  - { offset: 0x145A0, size: 0x8, addend: 0x0, symName: __ZNKSt3__114__split_bufferIiRNS_9allocatorIiEEE9__end_capB8ne180100Ev, symObjAddr: 0xBC84, symBinAddr: 0x10000EFD0, symSize: 0x28 }
  - { offset: 0x145C6, size: 0x8, addend: 0x0, symName: __ZNKSt3__117__compressed_pairIPiRNS_9allocatorIiEEE5firstB8ne180100Ev, symObjAddr: 0xBCAC, symBinAddr: 0x10000EFF8, symSize: 0x24 }
  - { offset: 0x145EC, size: 0x8, addend: 0x0, symName: __ZNSt3__16vectorIiNS_9allocatorIiEEEC2B8ne180100Ev, symObjAddr: 0xBCD0, symBinAddr: 0x10000F01C, symSize: 0x4C }
...
